
ctarget:     file format elf64-x86-64


Disassembly of section .init:

0000000000400bf0 <_init>:
  400bf0:	48 83 ec 08          	sub    $0x8,%rsp
  400bf4:	48 8b 05 fd 33 20 00 	mov    0x2033fd(%rip),%rax        # 603ff8 <__gmon_start__>
  400bfb:	48 85 c0             	test   %rax,%rax
  400bfe:	74 02                	je     400c02 <_init+0x12>
  400c00:	ff d0                	callq  *%rax
  400c02:	48 83 c4 08          	add    $0x8,%rsp
  400c06:	c3                   	retq   

Disassembly of section .plt:

0000000000400c10 <.plt>:
  400c10:	ff 35 f2 33 20 00    	pushq  0x2033f2(%rip)        # 604008 <_GLOBAL_OFFSET_TABLE_+0x8>
  400c16:	ff 25 f4 33 20 00    	jmpq   *0x2033f4(%rip)        # 604010 <_GLOBAL_OFFSET_TABLE_+0x10>
  400c1c:	0f 1f 40 00          	nopl   0x0(%rax)

0000000000400c20 <__errno_location@plt>:
  400c20:	ff 25 f2 33 20 00    	jmpq   *0x2033f2(%rip)        # 604018 <__errno_location@GLIBC_2.2.5>
  400c26:	68 00 00 00 00       	pushq  $0x0
  400c2b:	e9 e0 ff ff ff       	jmpq   400c10 <.plt>

0000000000400c30 <srandom@plt>:
  400c30:	ff 25 ea 33 20 00    	jmpq   *0x2033ea(%rip)        # 604020 <srandom@GLIBC_2.2.5>
  400c36:	68 01 00 00 00       	pushq  $0x1
  400c3b:	e9 d0 ff ff ff       	jmpq   400c10 <.plt>

0000000000400c40 <strncmp@plt>:
  400c40:	ff 25 e2 33 20 00    	jmpq   *0x2033e2(%rip)        # 604028 <strncmp@GLIBC_2.2.5>
  400c46:	68 02 00 00 00       	pushq  $0x2
  400c4b:	e9 c0 ff ff ff       	jmpq   400c10 <.plt>

0000000000400c50 <strcpy@plt>:
  400c50:	ff 25 da 33 20 00    	jmpq   *0x2033da(%rip)        # 604030 <strcpy@GLIBC_2.2.5>
  400c56:	68 03 00 00 00       	pushq  $0x3
  400c5b:	e9 b0 ff ff ff       	jmpq   400c10 <.plt>

0000000000400c60 <puts@plt>:
  400c60:	ff 25 d2 33 20 00    	jmpq   *0x2033d2(%rip)        # 604038 <puts@GLIBC_2.2.5>
  400c66:	68 04 00 00 00       	pushq  $0x4
  400c6b:	e9 a0 ff ff ff       	jmpq   400c10 <.plt>

0000000000400c70 <write@plt>:
  400c70:	ff 25 ca 33 20 00    	jmpq   *0x2033ca(%rip)        # 604040 <write@GLIBC_2.2.5>
  400c76:	68 05 00 00 00       	pushq  $0x5
  400c7b:	e9 90 ff ff ff       	jmpq   400c10 <.plt>

0000000000400c80 <__stack_chk_fail@plt>:
  400c80:	ff 25 c2 33 20 00    	jmpq   *0x2033c2(%rip)        # 604048 <__stack_chk_fail@GLIBC_2.4>
  400c86:	68 06 00 00 00       	pushq  $0x6
  400c8b:	e9 80 ff ff ff       	jmpq   400c10 <.plt>

0000000000400c90 <mmap@plt>:
  400c90:	ff 25 ba 33 20 00    	jmpq   *0x2033ba(%rip)        # 604050 <mmap@GLIBC_2.2.5>
  400c96:	68 07 00 00 00       	pushq  $0x7
  400c9b:	e9 70 ff ff ff       	jmpq   400c10 <.plt>

0000000000400ca0 <memset@plt>:
  400ca0:	ff 25 b2 33 20 00    	jmpq   *0x2033b2(%rip)        # 604058 <memset@GLIBC_2.2.5>
  400ca6:	68 08 00 00 00       	pushq  $0x8
  400cab:	e9 60 ff ff ff       	jmpq   400c10 <.plt>

0000000000400cb0 <alarm@plt>:
  400cb0:	ff 25 aa 33 20 00    	jmpq   *0x2033aa(%rip)        # 604060 <alarm@GLIBC_2.2.5>
  400cb6:	68 09 00 00 00       	pushq  $0x9
  400cbb:	e9 50 ff ff ff       	jmpq   400c10 <.plt>

0000000000400cc0 <close@plt>:
  400cc0:	ff 25 a2 33 20 00    	jmpq   *0x2033a2(%rip)        # 604068 <close@GLIBC_2.2.5>
  400cc6:	68 0a 00 00 00       	pushq  $0xa
  400ccb:	e9 40 ff ff ff       	jmpq   400c10 <.plt>

0000000000400cd0 <read@plt>:
  400cd0:	ff 25 9a 33 20 00    	jmpq   *0x20339a(%rip)        # 604070 <read@GLIBC_2.2.5>
  400cd6:	68 0b 00 00 00       	pushq  $0xb
  400cdb:	e9 30 ff ff ff       	jmpq   400c10 <.plt>

0000000000400ce0 <signal@plt>:
  400ce0:	ff 25 92 33 20 00    	jmpq   *0x203392(%rip)        # 604078 <signal@GLIBC_2.2.5>
  400ce6:	68 0c 00 00 00       	pushq  $0xc
  400ceb:	e9 20 ff ff ff       	jmpq   400c10 <.plt>

0000000000400cf0 <gethostbyname@plt>:
  400cf0:	ff 25 8a 33 20 00    	jmpq   *0x20338a(%rip)        # 604080 <gethostbyname@GLIBC_2.2.5>
  400cf6:	68 0d 00 00 00       	pushq  $0xd
  400cfb:	e9 10 ff ff ff       	jmpq   400c10 <.plt>

0000000000400d00 <__memmove_chk@plt>:
  400d00:	ff 25 82 33 20 00    	jmpq   *0x203382(%rip)        # 604088 <__memmove_chk@GLIBC_2.3.4>
  400d06:	68 0e 00 00 00       	pushq  $0xe
  400d0b:	e9 00 ff ff ff       	jmpq   400c10 <.plt>

0000000000400d10 <__memcpy_chk@plt>:
  400d10:	ff 25 7a 33 20 00    	jmpq   *0x20337a(%rip)        # 604090 <__memcpy_chk@GLIBC_2.3.4>
  400d16:	68 0f 00 00 00       	pushq  $0xf
  400d1b:	e9 f0 fe ff ff       	jmpq   400c10 <.plt>

0000000000400d20 <strtol@plt>:
  400d20:	ff 25 72 33 20 00    	jmpq   *0x203372(%rip)        # 604098 <strtol@GLIBC_2.2.5>
  400d26:	68 10 00 00 00       	pushq  $0x10
  400d2b:	e9 e0 fe ff ff       	jmpq   400c10 <.plt>

0000000000400d30 <memcpy@plt>:
  400d30:	ff 25 6a 33 20 00    	jmpq   *0x20336a(%rip)        # 6040a0 <memcpy@GLIBC_2.14>
  400d36:	68 11 00 00 00       	pushq  $0x11
  400d3b:	e9 d0 fe ff ff       	jmpq   400c10 <.plt>

0000000000400d40 <time@plt>:
  400d40:	ff 25 62 33 20 00    	jmpq   *0x203362(%rip)        # 6040a8 <time@GLIBC_2.2.5>
  400d46:	68 12 00 00 00       	pushq  $0x12
  400d4b:	e9 c0 fe ff ff       	jmpq   400c10 <.plt>

0000000000400d50 <inet_aton@plt>:
  400d50:	ff 25 5a 33 20 00    	jmpq   *0x20335a(%rip)        # 6040b0 <inet_aton@GLIBC_2.2.5>
  400d56:	68 13 00 00 00       	pushq  $0x13
  400d5b:	e9 b0 fe ff ff       	jmpq   400c10 <.plt>

0000000000400d60 <random@plt>:
  400d60:	ff 25 52 33 20 00    	jmpq   *0x203352(%rip)        # 6040b8 <random@GLIBC_2.2.5>
  400d66:	68 14 00 00 00       	pushq  $0x14
  400d6b:	e9 a0 fe ff ff       	jmpq   400c10 <.plt>

0000000000400d70 <_IO_getc@plt>:
  400d70:	ff 25 4a 33 20 00    	jmpq   *0x20334a(%rip)        # 6040c0 <_IO_getc@GLIBC_2.2.5>
  400d76:	68 15 00 00 00       	pushq  $0x15
  400d7b:	e9 90 fe ff ff       	jmpq   400c10 <.plt>

0000000000400d80 <munmap@plt>:
  400d80:	ff 25 42 33 20 00    	jmpq   *0x203342(%rip)        # 6040c8 <munmap@GLIBC_2.2.5>
  400d86:	68 16 00 00 00       	pushq  $0x16
  400d8b:	e9 80 fe ff ff       	jmpq   400c10 <.plt>

0000000000400d90 <__printf_chk@plt>:
  400d90:	ff 25 3a 33 20 00    	jmpq   *0x20333a(%rip)        # 6040d0 <__printf_chk@GLIBC_2.3.4>
  400d96:	68 17 00 00 00       	pushq  $0x17
  400d9b:	e9 70 fe ff ff       	jmpq   400c10 <.plt>

0000000000400da0 <fopen@plt>:
  400da0:	ff 25 32 33 20 00    	jmpq   *0x203332(%rip)        # 6040d8 <fopen@GLIBC_2.2.5>
  400da6:	68 18 00 00 00       	pushq  $0x18
  400dab:	e9 60 fe ff ff       	jmpq   400c10 <.plt>

0000000000400db0 <getopt@plt>:
  400db0:	ff 25 2a 33 20 00    	jmpq   *0x20332a(%rip)        # 6040e0 <getopt@GLIBC_2.2.5>
  400db6:	68 19 00 00 00       	pushq  $0x19
  400dbb:	e9 50 fe ff ff       	jmpq   400c10 <.plt>

0000000000400dc0 <strtoul@plt>:
  400dc0:	ff 25 22 33 20 00    	jmpq   *0x203322(%rip)        # 6040e8 <strtoul@GLIBC_2.2.5>
  400dc6:	68 1a 00 00 00       	pushq  $0x1a
  400dcb:	e9 40 fe ff ff       	jmpq   400c10 <.plt>

0000000000400dd0 <exit@plt>:
  400dd0:	ff 25 1a 33 20 00    	jmpq   *0x20331a(%rip)        # 6040f0 <exit@GLIBC_2.2.5>
  400dd6:	68 1b 00 00 00       	pushq  $0x1b
  400ddb:	e9 30 fe ff ff       	jmpq   400c10 <.plt>

0000000000400de0 <connect@plt>:
  400de0:	ff 25 12 33 20 00    	jmpq   *0x203312(%rip)        # 6040f8 <connect@GLIBC_2.2.5>
  400de6:	68 1c 00 00 00       	pushq  $0x1c
  400deb:	e9 20 fe ff ff       	jmpq   400c10 <.plt>

0000000000400df0 <__fprintf_chk@plt>:
  400df0:	ff 25 0a 33 20 00    	jmpq   *0x20330a(%rip)        # 604100 <__fprintf_chk@GLIBC_2.3.4>
  400df6:	68 1d 00 00 00       	pushq  $0x1d
  400dfb:	e9 10 fe ff ff       	jmpq   400c10 <.plt>

0000000000400e00 <__sprintf_chk@plt>:
  400e00:	ff 25 02 33 20 00    	jmpq   *0x203302(%rip)        # 604108 <__sprintf_chk@GLIBC_2.3.4>
  400e06:	68 1e 00 00 00       	pushq  $0x1e
  400e0b:	e9 00 fe ff ff       	jmpq   400c10 <.plt>

0000000000400e10 <socket@plt>:
  400e10:	ff 25 fa 32 20 00    	jmpq   *0x2032fa(%rip)        # 604110 <socket@GLIBC_2.2.5>
  400e16:	68 1f 00 00 00       	pushq  $0x1f
  400e1b:	e9 f0 fd ff ff       	jmpq   400c10 <.plt>

Disassembly of section .text:

0000000000400e20 <_start>:
  400e20:	31 ed                	xor    %ebp,%ebp
  400e22:	49 89 d1             	mov    %rdx,%r9
  400e25:	5e                   	pop    %rsi
  400e26:	48 89 e2             	mov    %rsp,%rdx
  400e29:	48 83 e4 f0          	and    $0xfffffffffffffff0,%rsp
  400e2d:	50                   	push   %rax
  400e2e:	54                   	push   %rsp
  400e2f:	49 c7 c0 c0 2e 40 00 	mov    $0x402ec0,%r8
  400e36:	48 c7 c1 50 2e 40 00 	mov    $0x402e50,%rcx
  400e3d:	48 c7 c7 a1 10 40 00 	mov    $0x4010a1,%rdi
  400e44:	ff 15 a6 31 20 00    	callq  *0x2031a6(%rip)        # 603ff0 <__libc_start_main@GLIBC_2.2.5>
  400e4a:	f4                   	hlt    
  400e4b:	0f 1f 44 00 00       	nopl   0x0(%rax,%rax,1)

0000000000400e50 <_dl_relocate_static_pie>:
  400e50:	f3 c3                	repz retq 
  400e52:	66 2e 0f 1f 84 00 00 	nopw   %cs:0x0(%rax,%rax,1)
  400e59:	00 00 00 
  400e5c:	0f 1f 40 00          	nopl   0x0(%rax)

0000000000400e60 <deregister_tm_clones>:
  400e60:	55                   	push   %rbp
  400e61:	b8 58 41 60 00       	mov    $0x604158,%eax
  400e66:	48 3d 58 41 60 00    	cmp    $0x604158,%rax
  400e6c:	48 89 e5             	mov    %rsp,%rbp
  400e6f:	74 17                	je     400e88 <deregister_tm_clones+0x28>
  400e71:	b8 00 00 00 00       	mov    $0x0,%eax
  400e76:	48 85 c0             	test   %rax,%rax
  400e79:	74 0d                	je     400e88 <deregister_tm_clones+0x28>
  400e7b:	5d                   	pop    %rbp
  400e7c:	bf 58 41 60 00       	mov    $0x604158,%edi
  400e81:	ff e0                	jmpq   *%rax
  400e83:	0f 1f 44 00 00       	nopl   0x0(%rax,%rax,1)
  400e88:	5d                   	pop    %rbp
  400e89:	c3                   	retq   
  400e8a:	66 0f 1f 44 00 00    	nopw   0x0(%rax,%rax,1)

0000000000400e90 <register_tm_clones>:
  400e90:	be 58 41 60 00       	mov    $0x604158,%esi
  400e95:	55                   	push   %rbp
  400e96:	48 81 ee 58 41 60 00 	sub    $0x604158,%rsi
  400e9d:	48 89 e5             	mov    %rsp,%rbp
  400ea0:	48 c1 fe 03          	sar    $0x3,%rsi
  400ea4:	48 89 f0             	mov    %rsi,%rax
  400ea7:	48 c1 e8 3f          	shr    $0x3f,%rax
  400eab:	48 01 c6             	add    %rax,%rsi
  400eae:	48 d1 fe             	sar    %rsi
  400eb1:	74 15                	je     400ec8 <register_tm_clones+0x38>
  400eb3:	b8 00 00 00 00       	mov    $0x0,%eax
  400eb8:	48 85 c0             	test   %rax,%rax
  400ebb:	74 0b                	je     400ec8 <register_tm_clones+0x38>
  400ebd:	5d                   	pop    %rbp
  400ebe:	bf 58 41 60 00       	mov    $0x604158,%edi
  400ec3:	ff e0                	jmpq   *%rax
  400ec5:	0f 1f 00             	nopl   (%rax)
  400ec8:	5d                   	pop    %rbp
  400ec9:	c3                   	retq   
  400eca:	66 0f 1f 44 00 00    	nopw   0x0(%rax,%rax,1)

0000000000400ed0 <__do_global_dtors_aux>:
  400ed0:	80 3d b1 32 20 00 00 	cmpb   $0x0,0x2032b1(%rip)        # 604188 <completed.7697>
  400ed7:	75 17                	jne    400ef0 <__do_global_dtors_aux+0x20>
  400ed9:	55                   	push   %rbp
  400eda:	48 89 e5             	mov    %rsp,%rbp
  400edd:	e8 7e ff ff ff       	callq  400e60 <deregister_tm_clones>
  400ee2:	c6 05 9f 32 20 00 01 	movb   $0x1,0x20329f(%rip)        # 604188 <completed.7697>
  400ee9:	5d                   	pop    %rbp
  400eea:	c3                   	retq   
  400eeb:	0f 1f 44 00 00       	nopl   0x0(%rax,%rax,1)
  400ef0:	f3 c3                	repz retq 
  400ef2:	0f 1f 40 00          	nopl   0x0(%rax)
  400ef6:	66 2e 0f 1f 84 00 00 	nopw   %cs:0x0(%rax,%rax,1)
  400efd:	00 00 00 

0000000000400f00 <frame_dummy>:
  400f00:	55                   	push   %rbp
  400f01:	48 89 e5             	mov    %rsp,%rbp
  400f04:	5d                   	pop    %rbp
  400f05:	eb 89                	jmp    400e90 <register_tm_clones>

0000000000400f07 <usage>:
  400f07:	48 83 ec 08          	sub    $0x8,%rsp
  400f0b:	48 89 fa             	mov    %rdi,%rdx
  400f0e:	83 3d d3 35 20 00 00 	cmpl   $0x0,0x2035d3(%rip)        # 6044e8 <is_checker>
  400f15:	74 50                	je     400f67 <usage+0x60>
  400f17:	48 8d 35 ba 1f 00 00 	lea    0x1fba(%rip),%rsi        # 402ed8 <_IO_stdin_used+0x8>
  400f1e:	bf 01 00 00 00       	mov    $0x1,%edi
  400f23:	b8 00 00 00 00       	mov    $0x0,%eax
  400f28:	e8 63 fe ff ff       	callq  400d90 <__printf_chk@plt>
  400f2d:	48 8d 3d dc 1f 00 00 	lea    0x1fdc(%rip),%rdi        # 402f10 <_IO_stdin_used+0x40>
  400f34:	e8 27 fd ff ff       	callq  400c60 <puts@plt>
  400f39:	48 8d 3d d0 20 00 00 	lea    0x20d0(%rip),%rdi        # 403010 <_IO_stdin_used+0x140>
  400f40:	e8 1b fd ff ff       	callq  400c60 <puts@plt>
  400f45:	48 8d 3d ec 1f 00 00 	lea    0x1fec(%rip),%rdi        # 402f38 <_IO_stdin_used+0x68>
  400f4c:	e8 0f fd ff ff       	callq  400c60 <puts@plt>
  400f51:	48 8d 3d d2 20 00 00 	lea    0x20d2(%rip),%rdi        # 40302a <_IO_stdin_used+0x15a>
  400f58:	e8 03 fd ff ff       	callq  400c60 <puts@plt>
  400f5d:	bf 00 00 00 00       	mov    $0x0,%edi
  400f62:	e8 69 fe ff ff       	callq  400dd0 <exit@plt>
  400f67:	48 8d 35 d8 20 00 00 	lea    0x20d8(%rip),%rsi        # 403046 <_IO_stdin_used+0x176>
  400f6e:	bf 01 00 00 00       	mov    $0x1,%edi
  400f73:	b8 00 00 00 00       	mov    $0x0,%eax
  400f78:	e8 13 fe ff ff       	callq  400d90 <__printf_chk@plt>
  400f7d:	48 8d 3d dc 1f 00 00 	lea    0x1fdc(%rip),%rdi        # 402f60 <_IO_stdin_used+0x90>
  400f84:	e8 d7 fc ff ff       	callq  400c60 <puts@plt>
  400f89:	48 8d 3d f8 1f 00 00 	lea    0x1ff8(%rip),%rdi        # 402f88 <_IO_stdin_used+0xb8>
  400f90:	e8 cb fc ff ff       	callq  400c60 <puts@plt>
  400f95:	48 8d 3d c8 20 00 00 	lea    0x20c8(%rip),%rdi        # 403064 <_IO_stdin_used+0x194>
  400f9c:	e8 bf fc ff ff       	callq  400c60 <puts@plt>
  400fa1:	eb ba                	jmp    400f5d <usage+0x56>

0000000000400fa3 <initialize_target>:
  400fa3:	55                   	push   %rbp
  400fa4:	53                   	push   %rbx
  400fa5:	48 81 ec 18 20 00 00 	sub    $0x2018,%rsp
  400fac:	89 f5                	mov    %esi,%ebp
  400fae:	64 48 8b 04 25 28 00 	mov    %fs:0x28,%rax
  400fb5:	00 00 
  400fb7:	48 89 84 24 08 20 00 	mov    %rax,0x2008(%rsp)
  400fbe:	00 
  400fbf:	31 c0                	xor    %eax,%eax
  400fc1:	89 3d 11 35 20 00    	mov    %edi,0x203511(%rip)        # 6044d8 <check_level>
  400fc7:	8b 3d 5b 31 20 00    	mov    0x20315b(%rip),%edi        # 604128 <target_id>
  400fcd:	e8 53 1e 00 00       	callq  402e25 <gencookie>
  400fd2:	89 05 0c 35 20 00    	mov    %eax,0x20350c(%rip)        # 6044e4 <cookie>
  400fd8:	89 c7                	mov    %eax,%edi
  400fda:	e8 46 1e 00 00       	callq  402e25 <gencookie>
  400fdf:	89 05 fb 34 20 00    	mov    %eax,0x2034fb(%rip)        # 6044e0 <authkey>
  400fe5:	8b 05 3d 31 20 00    	mov    0x20313d(%rip),%eax        # 604128 <target_id>
  400feb:	8d 78 01             	lea    0x1(%rax),%edi
  400fee:	e8 3d fc ff ff       	callq  400c30 <srandom@plt>
  400ff3:	e8 68 fd ff ff       	callq  400d60 <random@plt>
  400ff8:	89 c7                	mov    %eax,%edi
  400ffa:	e8 8d 02 00 00       	callq  40128c <scramble>
  400fff:	89 c3                	mov    %eax,%ebx
  401001:	85 ed                	test   %ebp,%ebp
  401003:	75 50                	jne    401055 <initialize_target+0xb2>
  401005:	b8 00 00 00 00       	mov    $0x0,%eax
  40100a:	01 d8                	add    %ebx,%eax
  40100c:	0f b7 c0             	movzwl %ax,%eax
  40100f:	8d 04 c5 00 01 00 00 	lea    0x100(,%rax,8),%eax
  401016:	89 c0                	mov    %eax,%eax
  401018:	48 89 05 29 31 20 00 	mov    %rax,0x203129(%rip)        # 604148 <buf_offset>
  40101f:	c6 05 e2 40 20 00 63 	movb   $0x63,0x2040e2(%rip)        # 605108 <target_prefix>
  401026:	83 3d 23 31 20 00 00 	cmpl   $0x0,0x203123(%rip)        # 604150 <notify>
  40102d:	74 09                	je     401038 <initialize_target+0x95>
  40102f:	83 3d b2 34 20 00 00 	cmpl   $0x0,0x2034b2(%rip)        # 6044e8 <is_checker>
  401036:	74 35                	je     40106d <initialize_target+0xca>
  401038:	48 8b 84 24 08 20 00 	mov    0x2008(%rsp),%rax
  40103f:	00 
  401040:	64 48 33 04 25 28 00 	xor    %fs:0x28,%rax
  401047:	00 00 
  401049:	75 51                	jne    40109c <initialize_target+0xf9>
  40104b:	48 81 c4 18 20 00 00 	add    $0x2018,%rsp
  401052:	5b                   	pop    %rbx
  401053:	5d                   	pop    %rbp
  401054:	c3                   	retq   
  401055:	bf 00 00 00 00       	mov    $0x0,%edi
  40105a:	e8 e1 fc ff ff       	callq  400d40 <time@plt>
  40105f:	89 c7                	mov    %eax,%edi
  401061:	e8 ca fb ff ff       	callq  400c30 <srandom@plt>
  401066:	e8 f5 fc ff ff       	callq  400d60 <random@plt>
  40106b:	eb 9d                	jmp    40100a <initialize_target+0x67>
  40106d:	48 89 e7             	mov    %rsp,%rdi
  401070:	e8 e0 1a 00 00       	callq  402b55 <init_driver>
  401075:	85 c0                	test   %eax,%eax
  401077:	79 bf                	jns    401038 <initialize_target+0x95>
  401079:	48 89 e2             	mov    %rsp,%rdx
  40107c:	48 8d 35 35 1f 00 00 	lea    0x1f35(%rip),%rsi        # 402fb8 <_IO_stdin_used+0xe8>
  401083:	bf 01 00 00 00       	mov    $0x1,%edi
  401088:	b8 00 00 00 00       	mov    $0x0,%eax
  40108d:	e8 fe fc ff ff       	callq  400d90 <__printf_chk@plt>
  401092:	bf 08 00 00 00       	mov    $0x8,%edi
  401097:	e8 34 fd ff ff       	callq  400dd0 <exit@plt>
  40109c:	e8 df fb ff ff       	callq  400c80 <__stack_chk_fail@plt>

00000000004010a1 <main>:
  4010a1:	41 56                	push   %r14
  4010a3:	41 55                	push   %r13
  4010a5:	41 54                	push   %r12
  4010a7:	55                   	push   %rbp
  4010a8:	53                   	push   %rbx
  4010a9:	41 89 fc             	mov    %edi,%r12d
  4010ac:	48 89 f3             	mov    %rsi,%rbx
  4010af:	48 c7 c6 7a 1e 40 00 	mov    $0x401e7a,%rsi
  4010b6:	bf 0b 00 00 00       	mov    $0xb,%edi
  4010bb:	e8 20 fc ff ff       	callq  400ce0 <signal@plt>
  4010c0:	48 c7 c6 26 1e 40 00 	mov    $0x401e26,%rsi
  4010c7:	bf 07 00 00 00       	mov    $0x7,%edi
  4010cc:	e8 0f fc ff ff       	callq  400ce0 <signal@plt>
  4010d1:	48 c7 c6 ce 1e 40 00 	mov    $0x401ece,%rsi
  4010d8:	bf 04 00 00 00       	mov    $0x4,%edi
  4010dd:	e8 fe fb ff ff       	callq  400ce0 <signal@plt>
  4010e2:	83 3d ff 33 20 00 00 	cmpl   $0x0,0x2033ff(%rip)        # 6044e8 <is_checker>
  4010e9:	75 26                	jne    401111 <main+0x70>
  4010eb:	48 8d 2d 8b 1f 00 00 	lea    0x1f8b(%rip),%rbp        # 40307d <_IO_stdin_used+0x1ad>
  4010f2:	48 8b 05 67 30 20 00 	mov    0x203067(%rip),%rax        # 604160 <stdin@@GLIBC_2.2.5>
  4010f9:	48 89 05 d0 33 20 00 	mov    %rax,0x2033d0(%rip)        # 6044d0 <infile>
  401100:	41 bd 00 00 00 00    	mov    $0x0,%r13d
  401106:	41 be 00 00 00 00    	mov    $0x0,%r14d
  40110c:	e9 8d 00 00 00       	jmpq   40119e <main+0xfd>
  401111:	48 c7 c6 22 1f 40 00 	mov    $0x401f22,%rsi
  401118:	bf 0e 00 00 00       	mov    $0xe,%edi
  40111d:	e8 be fb ff ff       	callq  400ce0 <signal@plt>
  401122:	bf 05 00 00 00       	mov    $0x5,%edi
  401127:	e8 84 fb ff ff       	callq  400cb0 <alarm@plt>
  40112c:	48 8d 2d 4f 1f 00 00 	lea    0x1f4f(%rip),%rbp        # 403082 <_IO_stdin_used+0x1b2>
  401133:	eb bd                	jmp    4010f2 <main+0x51>
  401135:	48 8b 3b             	mov    (%rbx),%rdi
  401138:	e8 ca fd ff ff       	callq  400f07 <usage>
  40113d:	48 8d 35 91 21 00 00 	lea    0x2191(%rip),%rsi        # 4032d5 <_IO_stdin_used+0x405>
  401144:	48 8b 3d 1d 30 20 00 	mov    0x20301d(%rip),%rdi        # 604168 <optarg@@GLIBC_2.2.5>
  40114b:	e8 50 fc ff ff       	callq  400da0 <fopen@plt>
  401150:	48 89 05 79 33 20 00 	mov    %rax,0x203379(%rip)        # 6044d0 <infile>
  401157:	48 85 c0             	test   %rax,%rax
  40115a:	75 42                	jne    40119e <main+0xfd>
  40115c:	48 8b 0d 05 30 20 00 	mov    0x203005(%rip),%rcx        # 604168 <optarg@@GLIBC_2.2.5>
  401163:	48 8d 15 20 1f 00 00 	lea    0x1f20(%rip),%rdx        # 40308a <_IO_stdin_used+0x1ba>
  40116a:	be 01 00 00 00       	mov    $0x1,%esi
  40116f:	48 8b 3d 0a 30 20 00 	mov    0x20300a(%rip),%rdi        # 604180 <stderr@@GLIBC_2.2.5>
  401176:	e8 75 fc ff ff       	callq  400df0 <__fprintf_chk@plt>
  40117b:	b8 01 00 00 00       	mov    $0x1,%eax
  401180:	e9 d9 00 00 00       	jmpq   40125e <main+0x1bd>
  401185:	ba 10 00 00 00       	mov    $0x10,%edx
  40118a:	be 00 00 00 00       	mov    $0x0,%esi
  40118f:	48 8b 3d d2 2f 20 00 	mov    0x202fd2(%rip),%rdi        # 604168 <optarg@@GLIBC_2.2.5>
  401196:	e8 25 fc ff ff       	callq  400dc0 <strtoul@plt>
  40119b:	41 89 c6             	mov    %eax,%r14d
  40119e:	48 89 ea             	mov    %rbp,%rdx
  4011a1:	48 89 de             	mov    %rbx,%rsi
  4011a4:	44 89 e7             	mov    %r12d,%edi
  4011a7:	e8 04 fc ff ff       	callq  400db0 <getopt@plt>
  4011ac:	3c ff                	cmp    $0xff,%al
  4011ae:	74 62                	je     401212 <main+0x171>
  4011b0:	0f be d0             	movsbl %al,%edx
  4011b3:	83 e8 61             	sub    $0x61,%eax
  4011b6:	3c 10                	cmp    $0x10,%al
  4011b8:	77 3a                	ja     4011f4 <main+0x153>
  4011ba:	0f b6 c0             	movzbl %al,%eax
  4011bd:	48 8d 0d 04 1f 00 00 	lea    0x1f04(%rip),%rcx        # 4030c8 <_IO_stdin_used+0x1f8>
  4011c4:	48 63 04 81          	movslq (%rcx,%rax,4),%rax
  4011c8:	48 01 c8             	add    %rcx,%rax
  4011cb:	ff e0                	jmpq   *%rax
  4011cd:	ba 0a 00 00 00       	mov    $0xa,%edx
  4011d2:	be 00 00 00 00       	mov    $0x0,%esi
  4011d7:	48 8b 3d 8a 2f 20 00 	mov    0x202f8a(%rip),%rdi        # 604168 <optarg@@GLIBC_2.2.5>
  4011de:	e8 3d fb ff ff       	callq  400d20 <strtol@plt>
  4011e3:	41 89 c5             	mov    %eax,%r13d
  4011e6:	eb b6                	jmp    40119e <main+0xfd>
  4011e8:	c7 05 5e 2f 20 00 00 	movl   $0x0,0x202f5e(%rip)        # 604150 <notify>
  4011ef:	00 00 00 
  4011f2:	eb aa                	jmp    40119e <main+0xfd>
  4011f4:	48 8d 35 ac 1e 00 00 	lea    0x1eac(%rip),%rsi        # 4030a7 <_IO_stdin_used+0x1d7>
  4011fb:	bf 01 00 00 00       	mov    $0x1,%edi
  401200:	b8 00 00 00 00       	mov    $0x0,%eax
  401205:	e8 86 fb ff ff       	callq  400d90 <__printf_chk@plt>
  40120a:	48 8b 3b             	mov    (%rbx),%rdi
  40120d:	e8 f5 fc ff ff       	callq  400f07 <usage>
  401212:	be 00 00 00 00       	mov    $0x0,%esi
  401217:	44 89 ef             	mov    %r13d,%edi
  40121a:	e8 84 fd ff ff       	callq  400fa3 <initialize_target>
  40121f:	83 3d c2 32 20 00 00 	cmpl   $0x0,0x2032c2(%rip)        # 6044e8 <is_checker>
  401226:	74 09                	je     401231 <main+0x190>
  401228:	44 39 35 b1 32 20 00 	cmp    %r14d,0x2032b1(%rip)        # 6044e0 <authkey>
  40122f:	75 36                	jne    401267 <main+0x1c6>
  401231:	8b 15 ad 32 20 00    	mov    0x2032ad(%rip),%edx        # 6044e4 <cookie>
  401237:	48 8d 35 7c 1e 00 00 	lea    0x1e7c(%rip),%rsi        # 4030ba <_IO_stdin_used+0x1ea>
  40123e:	bf 01 00 00 00       	mov    $0x1,%edi
  401243:	b8 00 00 00 00       	mov    $0x0,%eax
  401248:	e8 43 fb ff ff       	callq  400d90 <__printf_chk@plt>
  40124d:	48 8b 3d f4 2e 20 00 	mov    0x202ef4(%rip),%rdi        # 604148 <buf_offset>
  401254:	e8 d5 0d 00 00       	callq  40202e <stable_launch>
  401259:	b8 00 00 00 00       	mov    $0x0,%eax
  40125e:	5b                   	pop    %rbx
  40125f:	5d                   	pop    %rbp
  401260:	41 5c                	pop    %r12
  401262:	41 5d                	pop    %r13
  401264:	41 5e                	pop    %r14
  401266:	c3                   	retq   
  401267:	44 89 f2             	mov    %r14d,%edx
  40126a:	48 8d 35 6f 1d 00 00 	lea    0x1d6f(%rip),%rsi        # 402fe0 <_IO_stdin_used+0x110>
  401271:	bf 01 00 00 00       	mov    $0x1,%edi
  401276:	b8 00 00 00 00       	mov    $0x0,%eax
  40127b:	e8 10 fb ff ff       	callq  400d90 <__printf_chk@plt>
  401280:	b8 00 00 00 00       	mov    $0x0,%eax
  401285:	e8 fc 07 00 00       	callq  401a86 <check_fail>
  40128a:	eb a5                	jmp    401231 <main+0x190>

000000000040128c <scramble>:
  40128c:	48 83 ec 38          	sub    $0x38,%rsp
  401290:	64 48 8b 04 25 28 00 	mov    %fs:0x28,%rax
  401297:	00 00 
  401299:	48 89 44 24 28       	mov    %rax,0x28(%rsp)
  40129e:	31 c0                	xor    %eax,%eax
  4012a0:	eb 10                	jmp    4012b2 <scramble+0x26>
  4012a2:	69 d0 4f 34 00 00    	imul   $0x344f,%eax,%edx
  4012a8:	01 fa                	add    %edi,%edx
  4012aa:	89 c1                	mov    %eax,%ecx
  4012ac:	89 14 8c             	mov    %edx,(%rsp,%rcx,4)
  4012af:	83 c0 01             	add    $0x1,%eax
  4012b2:	83 f8 09             	cmp    $0x9,%eax
  4012b5:	76 eb                	jbe    4012a2 <scramble+0x16>
  4012b7:	8b 44 24 14          	mov    0x14(%rsp),%eax
  4012bb:	69 c0 a4 0d 00 00    	imul   $0xda4,%eax,%eax
  4012c1:	89 44 24 14          	mov    %eax,0x14(%rsp)
  4012c5:	8b 44 24 1c          	mov    0x1c(%rsp),%eax
  4012c9:	69 c0 3f 1e 00 00    	imul   $0x1e3f,%eax,%eax
  4012cf:	89 44 24 1c          	mov    %eax,0x1c(%rsp)
  4012d3:	8b 44 24 08          	mov    0x8(%rsp),%eax
  4012d7:	69 c0 97 07 00 00    	imul   $0x797,%eax,%eax
  4012dd:	89 44 24 08          	mov    %eax,0x8(%rsp)
  4012e1:	8b 44 24 04          	mov    0x4(%rsp),%eax
  4012e5:	69 c0 2b 25 00 00    	imul   $0x252b,%eax,%eax
  4012eb:	89 44 24 04          	mov    %eax,0x4(%rsp)
  4012ef:	8b 44 24 04          	mov    0x4(%rsp),%eax
  4012f3:	69 c0 90 e1 00 00    	imul   $0xe190,%eax,%eax
  4012f9:	89 44 24 04          	mov    %eax,0x4(%rsp)
  4012fd:	8b 44 24 20          	mov    0x20(%rsp),%eax
  401301:	69 c0 24 dd 00 00    	imul   $0xdd24,%eax,%eax
  401307:	89 44 24 20          	mov    %eax,0x20(%rsp)
  40130b:	8b 44 24 24          	mov    0x24(%rsp),%eax
  40130f:	69 c0 4e 8a 00 00    	imul   $0x8a4e,%eax,%eax
  401315:	89 44 24 24          	mov    %eax,0x24(%rsp)
  401319:	8b 44 24 24          	mov    0x24(%rsp),%eax
  40131d:	69 c0 5d 4a 00 00    	imul   $0x4a5d,%eax,%eax
  401323:	89 44 24 24          	mov    %eax,0x24(%rsp)
  401327:	8b 44 24 1c          	mov    0x1c(%rsp),%eax
  40132b:	69 c0 77 14 00 00    	imul   $0x1477,%eax,%eax
  401331:	89 44 24 1c          	mov    %eax,0x1c(%rsp)
  401335:	8b 44 24 24          	mov    0x24(%rsp),%eax
  401339:	69 c0 c0 9e 00 00    	imul   $0x9ec0,%eax,%eax
  40133f:	89 44 24 24          	mov    %eax,0x24(%rsp)
  401343:	8b 44 24 20          	mov    0x20(%rsp),%eax
  401347:	69 c0 e3 c2 00 00    	imul   $0xc2e3,%eax,%eax
  40134d:	89 44 24 20          	mov    %eax,0x20(%rsp)
  401351:	8b 44 24 08          	mov    0x8(%rsp),%eax
  401355:	69 c0 f3 eb 00 00    	imul   $0xebf3,%eax,%eax
  40135b:	89 44 24 08          	mov    %eax,0x8(%rsp)
  40135f:	8b 44 24 1c          	mov    0x1c(%rsp),%eax
  401363:	69 c0 a3 5f 00 00    	imul   $0x5fa3,%eax,%eax
  401369:	89 44 24 1c          	mov    %eax,0x1c(%rsp)
  40136d:	8b 04 24             	mov    (%rsp),%eax
  401370:	69 c0 3c f9 00 00    	imul   $0xf93c,%eax,%eax
  401376:	89 04 24             	mov    %eax,(%rsp)
  401379:	8b 44 24 14          	mov    0x14(%rsp),%eax
  40137d:	69 c0 76 a2 00 00    	imul   $0xa276,%eax,%eax
  401383:	89 44 24 14          	mov    %eax,0x14(%rsp)
  401387:	8b 44 24 08          	mov    0x8(%rsp),%eax
  40138b:	69 c0 2f 48 00 00    	imul   $0x482f,%eax,%eax
  401391:	89 44 24 08          	mov    %eax,0x8(%rsp)
  401395:	8b 44 24 20          	mov    0x20(%rsp),%eax
  401399:	69 c0 09 90 00 00    	imul   $0x9009,%eax,%eax
  40139f:	89 44 24 20          	mov    %eax,0x20(%rsp)
  4013a3:	8b 44 24 20          	mov    0x20(%rsp),%eax
  4013a7:	69 c0 3d c6 00 00    	imul   $0xc63d,%eax,%eax
  4013ad:	89 44 24 20          	mov    %eax,0x20(%rsp)
  4013b1:	8b 04 24             	mov    (%rsp),%eax
  4013b4:	69 c0 0b 10 00 00    	imul   $0x100b,%eax,%eax
  4013ba:	89 04 24             	mov    %eax,(%rsp)
  4013bd:	8b 44 24 0c          	mov    0xc(%rsp),%eax
  4013c1:	69 c0 b6 07 00 00    	imul   $0x7b6,%eax,%eax
  4013c7:	89 44 24 0c          	mov    %eax,0xc(%rsp)
  4013cb:	8b 44 24 10          	mov    0x10(%rsp),%eax
  4013cf:	69 c0 c7 db 00 00    	imul   $0xdbc7,%eax,%eax
  4013d5:	89 44 24 10          	mov    %eax,0x10(%rsp)
  4013d9:	8b 44 24 1c          	mov    0x1c(%rsp),%eax
  4013dd:	69 c0 57 d2 00 00    	imul   $0xd257,%eax,%eax
  4013e3:	89 44 24 1c          	mov    %eax,0x1c(%rsp)
  4013e7:	8b 44 24 04          	mov    0x4(%rsp),%eax
  4013eb:	69 c0 9c a6 00 00    	imul   $0xa69c,%eax,%eax
  4013f1:	89 44 24 04          	mov    %eax,0x4(%rsp)
  4013f5:	8b 44 24 14          	mov    0x14(%rsp),%eax
  4013f9:	69 c0 50 5c 00 00    	imul   $0x5c50,%eax,%eax
  4013ff:	89 44 24 14          	mov    %eax,0x14(%rsp)
  401403:	8b 44 24 04          	mov    0x4(%rsp),%eax
  401407:	69 c0 a4 ec 00 00    	imul   $0xeca4,%eax,%eax
  40140d:	89 44 24 04          	mov    %eax,0x4(%rsp)
  401411:	8b 44 24 20          	mov    0x20(%rsp),%eax
  401415:	69 c0 d1 51 00 00    	imul   $0x51d1,%eax,%eax
  40141b:	89 44 24 20          	mov    %eax,0x20(%rsp)
  40141f:	8b 04 24             	mov    (%rsp),%eax
  401422:	69 c0 f9 74 00 00    	imul   $0x74f9,%eax,%eax
  401428:	89 04 24             	mov    %eax,(%rsp)
  40142b:	8b 44 24 10          	mov    0x10(%rsp),%eax
  40142f:	69 c0 42 04 00 00    	imul   $0x442,%eax,%eax
  401435:	89 44 24 10          	mov    %eax,0x10(%rsp)
  401439:	8b 04 24             	mov    (%rsp),%eax
  40143c:	69 c0 33 94 00 00    	imul   $0x9433,%eax,%eax
  401442:	89 04 24             	mov    %eax,(%rsp)
  401445:	8b 44 24 14          	mov    0x14(%rsp),%eax
  401449:	69 c0 7c e8 00 00    	imul   $0xe87c,%eax,%eax
  40144f:	89 44 24 14          	mov    %eax,0x14(%rsp)
  401453:	8b 44 24 14          	mov    0x14(%rsp),%eax
  401457:	69 c0 31 62 00 00    	imul   $0x6231,%eax,%eax
  40145d:	89 44 24 14          	mov    %eax,0x14(%rsp)
  401461:	8b 44 24 20          	mov    0x20(%rsp),%eax
  401465:	69 c0 c3 e6 00 00    	imul   $0xe6c3,%eax,%eax
  40146b:	89 44 24 20          	mov    %eax,0x20(%rsp)
  40146f:	8b 44 24 24          	mov    0x24(%rsp),%eax
  401473:	69 c0 1a 97 00 00    	imul   $0x971a,%eax,%eax
  401479:	89 44 24 24          	mov    %eax,0x24(%rsp)
  40147d:	8b 44 24 24          	mov    0x24(%rsp),%eax
  401481:	69 c0 db 89 00 00    	imul   $0x89db,%eax,%eax
  401487:	89 44 24 24          	mov    %eax,0x24(%rsp)
  40148b:	8b 44 24 24          	mov    0x24(%rsp),%eax
  40148f:	69 c0 69 98 00 00    	imul   $0x9869,%eax,%eax
  401495:	89 44 24 24          	mov    %eax,0x24(%rsp)
  401499:	8b 44 24 04          	mov    0x4(%rsp),%eax
  40149d:	69 c0 c0 98 00 00    	imul   $0x98c0,%eax,%eax
  4014a3:	89 44 24 04          	mov    %eax,0x4(%rsp)
  4014a7:	8b 44 24 1c          	mov    0x1c(%rsp),%eax
  4014ab:	69 c0 6b 76 00 00    	imul   $0x766b,%eax,%eax
  4014b1:	89 44 24 1c          	mov    %eax,0x1c(%rsp)
  4014b5:	8b 44 24 04          	mov    0x4(%rsp),%eax
  4014b9:	69 c0 46 da 00 00    	imul   $0xda46,%eax,%eax
  4014bf:	89 44 24 04          	mov    %eax,0x4(%rsp)
  4014c3:	8b 44 24 24          	mov    0x24(%rsp),%eax
  4014c7:	69 c0 cc 87 00 00    	imul   $0x87cc,%eax,%eax
  4014cd:	89 44 24 24          	mov    %eax,0x24(%rsp)
  4014d1:	8b 44 24 1c          	mov    0x1c(%rsp),%eax
  4014d5:	69 c0 1b d8 00 00    	imul   $0xd81b,%eax,%eax
  4014db:	89 44 24 1c          	mov    %eax,0x1c(%rsp)
  4014df:	8b 44 24 18          	mov    0x18(%rsp),%eax
  4014e3:	69 c0 a8 31 00 00    	imul   $0x31a8,%eax,%eax
  4014e9:	89 44 24 18          	mov    %eax,0x18(%rsp)
  4014ed:	8b 44 24 0c          	mov    0xc(%rsp),%eax
  4014f1:	69 c0 f9 23 00 00    	imul   $0x23f9,%eax,%eax
  4014f7:	89 44 24 0c          	mov    %eax,0xc(%rsp)
  4014fb:	8b 44 24 24          	mov    0x24(%rsp),%eax
  4014ff:	69 c0 b0 67 00 00    	imul   $0x67b0,%eax,%eax
  401505:	89 44 24 24          	mov    %eax,0x24(%rsp)
  401509:	8b 44 24 1c          	mov    0x1c(%rsp),%eax
  40150d:	69 c0 3d 7b 00 00    	imul   $0x7b3d,%eax,%eax
  401513:	89 44 24 1c          	mov    %eax,0x1c(%rsp)
  401517:	8b 44 24 20          	mov    0x20(%rsp),%eax
  40151b:	69 c0 b9 25 00 00    	imul   $0x25b9,%eax,%eax
  401521:	89 44 24 20          	mov    %eax,0x20(%rsp)
  401525:	8b 44 24 18          	mov    0x18(%rsp),%eax
  401529:	69 c0 8c 32 00 00    	imul   $0x328c,%eax,%eax
  40152f:	89 44 24 18          	mov    %eax,0x18(%rsp)
  401533:	8b 44 24 04          	mov    0x4(%rsp),%eax
  401537:	69 c0 65 94 00 00    	imul   $0x9465,%eax,%eax
  40153d:	89 44 24 04          	mov    %eax,0x4(%rsp)
  401541:	8b 44 24 24          	mov    0x24(%rsp),%eax
  401545:	69 c0 25 7a 00 00    	imul   $0x7a25,%eax,%eax
  40154b:	89 44 24 24          	mov    %eax,0x24(%rsp)
  40154f:	8b 44 24 10          	mov    0x10(%rsp),%eax
  401553:	69 c0 50 c6 00 00    	imul   $0xc650,%eax,%eax
  401559:	89 44 24 10          	mov    %eax,0x10(%rsp)
  40155d:	8b 44 24 08          	mov    0x8(%rsp),%eax
  401561:	69 c0 a4 d2 00 00    	imul   $0xd2a4,%eax,%eax
  401567:	89 44 24 08          	mov    %eax,0x8(%rsp)
  40156b:	8b 44 24 08          	mov    0x8(%rsp),%eax
  40156f:	69 c0 91 95 00 00    	imul   $0x9591,%eax,%eax
  401575:	89 44 24 08          	mov    %eax,0x8(%rsp)
  401579:	8b 04 24             	mov    (%rsp),%eax
  40157c:	69 c0 eb d2 00 00    	imul   $0xd2eb,%eax,%eax
  401582:	89 04 24             	mov    %eax,(%rsp)
  401585:	8b 44 24 14          	mov    0x14(%rsp),%eax
  401589:	69 c0 7c d6 00 00    	imul   $0xd67c,%eax,%eax
  40158f:	89 44 24 14          	mov    %eax,0x14(%rsp)
  401593:	8b 44 24 08          	mov    0x8(%rsp),%eax
  401597:	69 c0 04 29 00 00    	imul   $0x2904,%eax,%eax
  40159d:	89 44 24 08          	mov    %eax,0x8(%rsp)
  4015a1:	8b 44 24 04          	mov    0x4(%rsp),%eax
  4015a5:	69 c0 c8 e3 00 00    	imul   $0xe3c8,%eax,%eax
  4015ab:	89 44 24 04          	mov    %eax,0x4(%rsp)
  4015af:	8b 44 24 20          	mov    0x20(%rsp),%eax
  4015b3:	69 c0 b9 d2 00 00    	imul   $0xd2b9,%eax,%eax
  4015b9:	89 44 24 20          	mov    %eax,0x20(%rsp)
  4015bd:	8b 44 24 20          	mov    0x20(%rsp),%eax
  4015c1:	69 c0 0b 2b 00 00    	imul   $0x2b0b,%eax,%eax
  4015c7:	89 44 24 20          	mov    %eax,0x20(%rsp)
  4015cb:	8b 44 24 14          	mov    0x14(%rsp),%eax
  4015cf:	69 c0 11 bc 00 00    	imul   $0xbc11,%eax,%eax
  4015d5:	89 44 24 14          	mov    %eax,0x14(%rsp)
  4015d9:	8b 44 24 14          	mov    0x14(%rsp),%eax
  4015dd:	69 c0 ed 1e 00 00    	imul   $0x1eed,%eax,%eax
  4015e3:	89 44 24 14          	mov    %eax,0x14(%rsp)
  4015e7:	8b 44 24 18          	mov    0x18(%rsp),%eax
  4015eb:	69 c0 9e 8e 00 00    	imul   $0x8e9e,%eax,%eax
  4015f1:	89 44 24 18          	mov    %eax,0x18(%rsp)
  4015f5:	8b 44 24 20          	mov    0x20(%rsp),%eax
  4015f9:	69 c0 09 9b 00 00    	imul   $0x9b09,%eax,%eax
  4015ff:	89 44 24 20          	mov    %eax,0x20(%rsp)
  401603:	8b 44 24 20          	mov    0x20(%rsp),%eax
  401607:	69 c0 91 cc 00 00    	imul   $0xcc91,%eax,%eax
  40160d:	89 44 24 20          	mov    %eax,0x20(%rsp)
  401611:	8b 44 24 08          	mov    0x8(%rsp),%eax
  401615:	69 c0 79 da 00 00    	imul   $0xda79,%eax,%eax
  40161b:	89 44 24 08          	mov    %eax,0x8(%rsp)
  40161f:	8b 44 24 10          	mov    0x10(%rsp),%eax
  401623:	69 c0 ee 5a 00 00    	imul   $0x5aee,%eax,%eax
  401629:	89 44 24 10          	mov    %eax,0x10(%rsp)
  40162d:	8b 04 24             	mov    (%rsp),%eax
  401630:	69 c0 b6 4a 00 00    	imul   $0x4ab6,%eax,%eax
  401636:	89 04 24             	mov    %eax,(%rsp)
  401639:	8b 44 24 0c          	mov    0xc(%rsp),%eax
  40163d:	69 c0 84 ff 00 00    	imul   $0xff84,%eax,%eax
  401643:	89 44 24 0c          	mov    %eax,0xc(%rsp)
  401647:	8b 44 24 0c          	mov    0xc(%rsp),%eax
  40164b:	69 c0 f7 98 00 00    	imul   $0x98f7,%eax,%eax
  401651:	89 44 24 0c          	mov    %eax,0xc(%rsp)
  401655:	8b 44 24 1c          	mov    0x1c(%rsp),%eax
  401659:	69 c0 43 ec 00 00    	imul   $0xec43,%eax,%eax
  40165f:	89 44 24 1c          	mov    %eax,0x1c(%rsp)
  401663:	8b 44 24 24          	mov    0x24(%rsp),%eax
  401667:	69 c0 a0 7f 00 00    	imul   $0x7fa0,%eax,%eax
  40166d:	89 44 24 24          	mov    %eax,0x24(%rsp)
  401671:	8b 44 24 1c          	mov    0x1c(%rsp),%eax
  401675:	69 c0 bb cd 00 00    	imul   $0xcdbb,%eax,%eax
  40167b:	89 44 24 1c          	mov    %eax,0x1c(%rsp)
  40167f:	8b 44 24 04          	mov    0x4(%rsp),%eax
  401683:	69 c0 66 16 00 00    	imul   $0x1666,%eax,%eax
  401689:	89 44 24 04          	mov    %eax,0x4(%rsp)
  40168d:	8b 44 24 04          	mov    0x4(%rsp),%eax
  401691:	69 c0 d9 78 00 00    	imul   $0x78d9,%eax,%eax
  401697:	89 44 24 04          	mov    %eax,0x4(%rsp)
  40169b:	8b 44 24 0c          	mov    0xc(%rsp),%eax
  40169f:	69 c0 27 97 00 00    	imul   $0x9727,%eax,%eax
  4016a5:	89 44 24 0c          	mov    %eax,0xc(%rsp)
  4016a9:	8b 44 24 24          	mov    0x24(%rsp),%eax
  4016ad:	69 c0 2c d4 00 00    	imul   $0xd42c,%eax,%eax
  4016b3:	89 44 24 24          	mov    %eax,0x24(%rsp)
  4016b7:	8b 04 24             	mov    (%rsp),%eax
  4016ba:	69 c0 3a 6c 00 00    	imul   $0x6c3a,%eax,%eax
  4016c0:	89 04 24             	mov    %eax,(%rsp)
  4016c3:	8b 44 24 14          	mov    0x14(%rsp),%eax
  4016c7:	69 c0 bb fa 00 00    	imul   $0xfabb,%eax,%eax
  4016cd:	89 44 24 14          	mov    %eax,0x14(%rsp)
  4016d1:	8b 44 24 08          	mov    0x8(%rsp),%eax
  4016d5:	69 c0 f4 23 00 00    	imul   $0x23f4,%eax,%eax
  4016db:	89 44 24 08          	mov    %eax,0x8(%rsp)
  4016df:	8b 44 24 08          	mov    0x8(%rsp),%eax
  4016e3:	69 c0 b1 36 00 00    	imul   $0x36b1,%eax,%eax
  4016e9:	89 44 24 08          	mov    %eax,0x8(%rsp)
  4016ed:	8b 44 24 1c          	mov    0x1c(%rsp),%eax
  4016f1:	69 c0 02 0e 00 00    	imul   $0xe02,%eax,%eax
  4016f7:	89 44 24 1c          	mov    %eax,0x1c(%rsp)
  4016fb:	8b 44 24 08          	mov    0x8(%rsp),%eax
  4016ff:	69 c0 38 9f 00 00    	imul   $0x9f38,%eax,%eax
  401705:	89 44 24 08          	mov    %eax,0x8(%rsp)
  401709:	8b 44 24 10          	mov    0x10(%rsp),%eax
  40170d:	69 c0 32 bf 00 00    	imul   $0xbf32,%eax,%eax
  401713:	89 44 24 10          	mov    %eax,0x10(%rsp)
  401717:	8b 44 24 14          	mov    0x14(%rsp),%eax
  40171b:	69 c0 ff 38 00 00    	imul   $0x38ff,%eax,%eax
  401721:	89 44 24 14          	mov    %eax,0x14(%rsp)
  401725:	8b 44 24 14          	mov    0x14(%rsp),%eax
  401729:	69 c0 2b 71 00 00    	imul   $0x712b,%eax,%eax
  40172f:	89 44 24 14          	mov    %eax,0x14(%rsp)
  401733:	8b 44 24 24          	mov    0x24(%rsp),%eax
  401737:	69 c0 9c c7 00 00    	imul   $0xc79c,%eax,%eax
  40173d:	89 44 24 24          	mov    %eax,0x24(%rsp)
  401741:	8b 44 24 0c          	mov    0xc(%rsp),%eax
  401745:	69 c0 8a 3a 00 00    	imul   $0x3a8a,%eax,%eax
  40174b:	89 44 24 0c          	mov    %eax,0xc(%rsp)
  40174f:	8b 44 24 24          	mov    0x24(%rsp),%eax
  401753:	69 c0 34 54 00 00    	imul   $0x5434,%eax,%eax
  401759:	89 44 24 24          	mov    %eax,0x24(%rsp)
  40175d:	8b 44 24 18          	mov    0x18(%rsp),%eax
  401761:	69 c0 cc 35 00 00    	imul   $0x35cc,%eax,%eax
  401767:	89 44 24 18          	mov    %eax,0x18(%rsp)
  40176b:	8b 44 24 20          	mov    0x20(%rsp),%eax
  40176f:	69 c0 62 92 00 00    	imul   $0x9262,%eax,%eax
  401775:	89 44 24 20          	mov    %eax,0x20(%rsp)
  401779:	8b 44 24 24          	mov    0x24(%rsp),%eax
  40177d:	69 c0 f9 01 00 00    	imul   $0x1f9,%eax,%eax
  401783:	89 44 24 24          	mov    %eax,0x24(%rsp)
  401787:	8b 44 24 04          	mov    0x4(%rsp),%eax
  40178b:	69 c0 09 83 00 00    	imul   $0x8309,%eax,%eax
  401791:	89 44 24 04          	mov    %eax,0x4(%rsp)
  401795:	8b 44 24 18          	mov    0x18(%rsp),%eax
  401799:	69 c0 59 c9 00 00    	imul   $0xc959,%eax,%eax
  40179f:	89 44 24 18          	mov    %eax,0x18(%rsp)
  4017a3:	8b 44 24 08          	mov    0x8(%rsp),%eax
  4017a7:	69 c0 76 75 00 00    	imul   $0x7576,%eax,%eax
  4017ad:	89 44 24 08          	mov    %eax,0x8(%rsp)
  4017b1:	8b 44 24 0c          	mov    0xc(%rsp),%eax
  4017b5:	69 c0 11 45 00 00    	imul   $0x4511,%eax,%eax
  4017bb:	89 44 24 0c          	mov    %eax,0xc(%rsp)
  4017bf:	8b 44 24 14          	mov    0x14(%rsp),%eax
  4017c3:	69 c0 bc eb 00 00    	imul   $0xebbc,%eax,%eax
  4017c9:	89 44 24 14          	mov    %eax,0x14(%rsp)
  4017cd:	8b 44 24 10          	mov    0x10(%rsp),%eax
  4017d1:	69 c0 c7 3d 00 00    	imul   $0x3dc7,%eax,%eax
  4017d7:	89 44 24 10          	mov    %eax,0x10(%rsp)
  4017db:	8b 44 24 24          	mov    0x24(%rsp),%eax
  4017df:	69 c0 cc ab 00 00    	imul   $0xabcc,%eax,%eax
  4017e5:	89 44 24 24          	mov    %eax,0x24(%rsp)
  4017e9:	ba 00 00 00 00       	mov    $0x0,%edx
  4017ee:	b8 00 00 00 00       	mov    $0x0,%eax
  4017f3:	eb 0a                	jmp    4017ff <scramble+0x573>
  4017f5:	89 d1                	mov    %edx,%ecx
  4017f7:	8b 0c 8c             	mov    (%rsp,%rcx,4),%ecx
  4017fa:	01 c8                	add    %ecx,%eax
  4017fc:	83 c2 01             	add    $0x1,%edx
  4017ff:	83 fa 09             	cmp    $0x9,%edx
  401802:	76 f1                	jbe    4017f5 <scramble+0x569>
  401804:	48 8b 74 24 28       	mov    0x28(%rsp),%rsi
  401809:	64 48 33 34 25 28 00 	xor    %fs:0x28,%rsi
  401810:	00 00 
  401812:	75 05                	jne    401819 <scramble+0x58d>
  401814:	48 83 c4 38          	add    $0x38,%rsp
  401818:	c3                   	retq   
  401819:	e8 62 f4 ff ff       	callq  400c80 <__stack_chk_fail@plt>

000000000040181e <getbuf>:
  40181e:	48 83 ec 28          	sub    $0x28,%rsp
  401822:	48 89 e7             	mov    %rsp,%rdi
  401825:	e8 94 02 00 00       	callq  401abe <Gets>
  40182a:	b8 01 00 00 00       	mov    $0x1,%eax
  40182f:	48 83 c4 28          	add    $0x28,%rsp
  401833:	c3                   	retq   

0000000000401834 <touch1>:
  401834:	48 83 ec 08          	sub    $0x8,%rsp
  401838:	c7 05 9a 2c 20 00 01 	movl   $0x1,0x202c9a(%rip)        # 6044dc <vlevel>
  40183f:	00 00 00 
  401842:	48 8d 3d e1 18 00 00 	lea    0x18e1(%rip),%rdi        # 40312a <_IO_stdin_used+0x25a>
  401849:	e8 12 f4 ff ff       	callq  400c60 <puts@plt>
  40184e:	bf 01 00 00 00       	mov    $0x1,%edi
  401853:	e8 d6 04 00 00       	callq  401d2e <validate>
  401858:	bf 00 00 00 00       	mov    $0x0,%edi
  40185d:	e8 6e f5 ff ff       	callq  400dd0 <exit@plt>

0000000000401862 <touch2>:
  401862:	48 83 ec 08          	sub    $0x8,%rsp
  401866:	89 fa                	mov    %edi,%edx
  401868:	c7 05 6a 2c 20 00 02 	movl   $0x2,0x202c6a(%rip)        # 6044dc <vlevel>
  40186f:	00 00 00 
  401872:	39 3d 6c 2c 20 00    	cmp    %edi,0x202c6c(%rip)        # 6044e4 <cookie>
  401878:	74 2a                	je     4018a4 <touch2+0x42>
  40187a:	48 8d 35 f7 18 00 00 	lea    0x18f7(%rip),%rsi        # 403178 <_IO_stdin_used+0x2a8>
  401881:	bf 01 00 00 00       	mov    $0x1,%edi
  401886:	b8 00 00 00 00       	mov    $0x0,%eax
  40188b:	e8 00 f5 ff ff       	callq  400d90 <__printf_chk@plt>
  401890:	bf 02 00 00 00       	mov    $0x2,%edi
  401895:	e8 64 05 00 00       	callq  401dfe <fail>
  40189a:	bf 00 00 00 00       	mov    $0x0,%edi
  40189f:	e8 2c f5 ff ff       	callq  400dd0 <exit@plt>
  4018a4:	48 8d 35 a5 18 00 00 	lea    0x18a5(%rip),%rsi        # 403150 <_IO_stdin_used+0x280>
  4018ab:	bf 01 00 00 00       	mov    $0x1,%edi
  4018b0:	b8 00 00 00 00       	mov    $0x0,%eax
  4018b5:	e8 d6 f4 ff ff       	callq  400d90 <__printf_chk@plt>
  4018ba:	bf 02 00 00 00       	mov    $0x2,%edi
  4018bf:	e8 6a 04 00 00       	callq  401d2e <validate>
  4018c4:	eb d4                	jmp    40189a <touch2+0x38>

00000000004018c6 <hexmatch>:
  4018c6:	41 54                	push   %r12
  4018c8:	55                   	push   %rbp
  4018c9:	53                   	push   %rbx
  4018ca:	48 83 c4 80          	add    $0xffffffffffffff80,%rsp
  4018ce:	89 fd                	mov    %edi,%ebp
  4018d0:	48 89 f3             	mov    %rsi,%rbx
  4018d3:	64 48 8b 04 25 28 00 	mov    %fs:0x28,%rax
  4018da:	00 00 
  4018dc:	48 89 44 24 78       	mov    %rax,0x78(%rsp)
  4018e1:	31 c0                	xor    %eax,%eax
  4018e3:	e8 78 f4 ff ff       	callq  400d60 <random@plt>
  4018e8:	48 89 c1             	mov    %rax,%rcx
  4018eb:	48 ba 0b d7 a3 70 3d 	movabs $0xa3d70a3d70a3d70b,%rdx
  4018f2:	0a d7 a3 
  4018f5:	48 f7 ea             	imul   %rdx
  4018f8:	48 01 ca             	add    %rcx,%rdx
  4018fb:	48 c1 fa 06          	sar    $0x6,%rdx
  4018ff:	48 89 c8             	mov    %rcx,%rax
  401902:	48 c1 f8 3f          	sar    $0x3f,%rax
  401906:	48 29 c2             	sub    %rax,%rdx
  401909:	48 8d 04 92          	lea    (%rdx,%rdx,4),%rax
  40190d:	48 8d 14 80          	lea    (%rax,%rax,4),%rdx
  401911:	48 8d 04 95 00 00 00 	lea    0x0(,%rdx,4),%rax
  401918:	00 
  401919:	48 29 c1             	sub    %rax,%rcx
  40191c:	4c 8d 24 0c          	lea    (%rsp,%rcx,1),%r12
  401920:	41 89 e8             	mov    %ebp,%r8d
  401923:	48 8d 0d 1d 18 00 00 	lea    0x181d(%rip),%rcx        # 403147 <_IO_stdin_used+0x277>
  40192a:	48 c7 c2 ff ff ff ff 	mov    $0xffffffffffffffff,%rdx
  401931:	be 01 00 00 00       	mov    $0x1,%esi
  401936:	4c 89 e7             	mov    %r12,%rdi
  401939:	b8 00 00 00 00       	mov    $0x0,%eax
  40193e:	e8 bd f4 ff ff       	callq  400e00 <__sprintf_chk@plt>
  401943:	ba 09 00 00 00       	mov    $0x9,%edx
  401948:	4c 89 e6             	mov    %r12,%rsi
  40194b:	48 89 df             	mov    %rbx,%rdi
  40194e:	e8 ed f2 ff ff       	callq  400c40 <strncmp@plt>
  401953:	85 c0                	test   %eax,%eax
  401955:	0f 94 c0             	sete   %al
  401958:	48 8b 5c 24 78       	mov    0x78(%rsp),%rbx
  40195d:	64 48 33 1c 25 28 00 	xor    %fs:0x28,%rbx
  401964:	00 00 
  401966:	75 0c                	jne    401974 <hexmatch+0xae>
  401968:	0f b6 c0             	movzbl %al,%eax
  40196b:	48 83 ec 80          	sub    $0xffffffffffffff80,%rsp
  40196f:	5b                   	pop    %rbx
  401970:	5d                   	pop    %rbp
  401971:	41 5c                	pop    %r12
  401973:	c3                   	retq   
  401974:	e8 07 f3 ff ff       	callq  400c80 <__stack_chk_fail@plt>

0000000000401979 <touch3>:
  401979:	53                   	push   %rbx
  40197a:	48 89 fb             	mov    %rdi,%rbx
  40197d:	c7 05 55 2b 20 00 03 	movl   $0x3,0x202b55(%rip)        # 6044dc <vlevel>
  401984:	00 00 00 
  401987:	48 89 fe             	mov    %rdi,%rsi
  40198a:	8b 3d 54 2b 20 00    	mov    0x202b54(%rip),%edi        # 6044e4 <cookie>
  401990:	e8 31 ff ff ff       	callq  4018c6 <hexmatch>
  401995:	85 c0                	test   %eax,%eax
  401997:	74 2d                	je     4019c6 <touch3+0x4d>
  401999:	48 89 da             	mov    %rbx,%rdx
  40199c:	48 8d 35 fd 17 00 00 	lea    0x17fd(%rip),%rsi        # 4031a0 <_IO_stdin_used+0x2d0>
  4019a3:	bf 01 00 00 00       	mov    $0x1,%edi
  4019a8:	b8 00 00 00 00       	mov    $0x0,%eax
  4019ad:	e8 de f3 ff ff       	callq  400d90 <__printf_chk@plt>
  4019b2:	bf 03 00 00 00       	mov    $0x3,%edi
  4019b7:	e8 72 03 00 00       	callq  401d2e <validate>
  4019bc:	bf 00 00 00 00       	mov    $0x0,%edi
  4019c1:	e8 0a f4 ff ff       	callq  400dd0 <exit@plt>
  4019c6:	48 89 da             	mov    %rbx,%rdx
  4019c9:	48 8d 35 f8 17 00 00 	lea    0x17f8(%rip),%rsi        # 4031c8 <_IO_stdin_used+0x2f8>
  4019d0:	bf 01 00 00 00       	mov    $0x1,%edi
  4019d5:	b8 00 00 00 00       	mov    $0x0,%eax
  4019da:	e8 b1 f3 ff ff       	callq  400d90 <__printf_chk@plt>
  4019df:	bf 03 00 00 00       	mov    $0x3,%edi
  4019e4:	e8 15 04 00 00       	callq  401dfe <fail>
  4019e9:	eb d1                	jmp    4019bc <touch3+0x43>

00000000004019eb <test>:
  4019eb:	48 83 ec 08          	sub    $0x8,%rsp
  4019ef:	b8 00 00 00 00       	mov    $0x0,%eax
  4019f4:	e8 25 fe ff ff       	callq  40181e <getbuf>
  4019f9:	89 c2                	mov    %eax,%edx
  4019fb:	48 8d 35 ee 17 00 00 	lea    0x17ee(%rip),%rsi        # 4031f0 <_IO_stdin_used+0x320>
  401a02:	bf 01 00 00 00       	mov    $0x1,%edi
  401a07:	b8 00 00 00 00       	mov    $0x0,%eax
  401a0c:	e8 7f f3 ff ff       	callq  400d90 <__printf_chk@plt>
  401a11:	48 83 c4 08          	add    $0x8,%rsp
  401a15:	c3                   	retq   

0000000000401a16 <save_char>:
  401a16:	8b 05 e8 36 20 00    	mov    0x2036e8(%rip),%eax        # 605104 <gets_cnt>
  401a1c:	3d ff 03 00 00       	cmp    $0x3ff,%eax
  401a21:	7f 4a                	jg     401a6d <save_char+0x57>
  401a23:	89 f9                	mov    %edi,%ecx
  401a25:	c0 e9 04             	shr    $0x4,%cl
  401a28:	8d 14 40             	lea    (%rax,%rax,2),%edx
  401a2b:	4c 8d 05 de 1a 00 00 	lea    0x1ade(%rip),%r8        # 403510 <trans_char>
  401a32:	83 e1 0f             	and    $0xf,%ecx
  401a35:	45 0f b6 0c 08       	movzbl (%r8,%rcx,1),%r9d
  401a3a:	48 8d 0d bf 2a 20 00 	lea    0x202abf(%rip),%rcx        # 604500 <gets_buf>
  401a41:	48 63 f2             	movslq %edx,%rsi
  401a44:	44 88 0c 31          	mov    %r9b,(%rcx,%rsi,1)
  401a48:	8d 72 01             	lea    0x1(%rdx),%esi
  401a4b:	83 e7 0f             	and    $0xf,%edi
  401a4e:	41 0f b6 3c 38       	movzbl (%r8,%rdi,1),%edi
  401a53:	48 63 f6             	movslq %esi,%rsi
  401a56:	40 88 3c 31          	mov    %dil,(%rcx,%rsi,1)
  401a5a:	83 c2 02             	add    $0x2,%edx
  401a5d:	48 63 d2             	movslq %edx,%rdx
  401a60:	c6 04 11 20          	movb   $0x20,(%rcx,%rdx,1)
  401a64:	83 c0 01             	add    $0x1,%eax
  401a67:	89 05 97 36 20 00    	mov    %eax,0x203697(%rip)        # 605104 <gets_cnt>
  401a6d:	f3 c3                	repz retq 

0000000000401a6f <save_term>:
  401a6f:	8b 05 8f 36 20 00    	mov    0x20368f(%rip),%eax        # 605104 <gets_cnt>
  401a75:	8d 04 40             	lea    (%rax,%rax,2),%eax
  401a78:	48 98                	cltq   
  401a7a:	48 8d 15 7f 2a 20 00 	lea    0x202a7f(%rip),%rdx        # 604500 <gets_buf>
  401a81:	c6 04 02 00          	movb   $0x0,(%rdx,%rax,1)
  401a85:	c3                   	retq   

0000000000401a86 <check_fail>:
  401a86:	48 83 ec 08          	sub    $0x8,%rsp
  401a8a:	0f be 15 77 36 20 00 	movsbl 0x203677(%rip),%edx        # 605108 <target_prefix>
  401a91:	4c 8d 05 68 2a 20 00 	lea    0x202a68(%rip),%r8        # 604500 <gets_buf>
  401a98:	8b 0d 3a 2a 20 00    	mov    0x202a3a(%rip),%ecx        # 6044d8 <check_level>
  401a9e:	48 8d 35 6e 17 00 00 	lea    0x176e(%rip),%rsi        # 403213 <_IO_stdin_used+0x343>
  401aa5:	bf 01 00 00 00       	mov    $0x1,%edi
  401aaa:	b8 00 00 00 00       	mov    $0x0,%eax
  401aaf:	e8 dc f2 ff ff       	callq  400d90 <__printf_chk@plt>
  401ab4:	bf 01 00 00 00       	mov    $0x1,%edi
  401ab9:	e8 12 f3 ff ff       	callq  400dd0 <exit@plt>

0000000000401abe <Gets>:
  401abe:	41 54                	push   %r12
  401ac0:	55                   	push   %rbp
  401ac1:	53                   	push   %rbx
  401ac2:	49 89 fc             	mov    %rdi,%r12
  401ac5:	c7 05 35 36 20 00 00 	movl   $0x0,0x203635(%rip)        # 605104 <gets_cnt>
  401acc:	00 00 00 
  401acf:	48 89 fb             	mov    %rdi,%rbx
  401ad2:	eb 11                	jmp    401ae5 <Gets+0x27>
  401ad4:	48 8d 6b 01          	lea    0x1(%rbx),%rbp
  401ad8:	88 03                	mov    %al,(%rbx)
  401ada:	0f b6 f8             	movzbl %al,%edi
  401add:	e8 34 ff ff ff       	callq  401a16 <save_char>
  401ae2:	48 89 eb             	mov    %rbp,%rbx
  401ae5:	48 8b 3d e4 29 20 00 	mov    0x2029e4(%rip),%rdi        # 6044d0 <infile>
  401aec:	e8 7f f2 ff ff       	callq  400d70 <_IO_getc@plt>
  401af1:	83 f8 ff             	cmp    $0xffffffff,%eax
  401af4:	74 05                	je     401afb <Gets+0x3d>
  401af6:	83 f8 0a             	cmp    $0xa,%eax
  401af9:	75 d9                	jne    401ad4 <Gets+0x16>
  401afb:	c6 03 00             	movb   $0x0,(%rbx)
  401afe:	b8 00 00 00 00       	mov    $0x0,%eax
  401b03:	e8 67 ff ff ff       	callq  401a6f <save_term>
  401b08:	4c 89 e0             	mov    %r12,%rax
  401b0b:	5b                   	pop    %rbx
  401b0c:	5d                   	pop    %rbp
  401b0d:	41 5c                	pop    %r12
  401b0f:	c3                   	retq   

0000000000401b10 <notify_server>:
  401b10:	55                   	push   %rbp
  401b11:	53                   	push   %rbx
  401b12:	48 81 ec 18 40 00 00 	sub    $0x4018,%rsp
  401b19:	64 48 8b 04 25 28 00 	mov    %fs:0x28,%rax
  401b20:	00 00 
  401b22:	48 89 84 24 08 40 00 	mov    %rax,0x4008(%rsp)
  401b29:	00 
  401b2a:	31 c0                	xor    %eax,%eax
  401b2c:	83 3d b5 29 20 00 00 	cmpl   $0x0,0x2029b5(%rip)        # 6044e8 <is_checker>
  401b33:	0f 85 d2 00 00 00    	jne    401c0b <notify_server+0xfb>
  401b39:	89 fb                	mov    %edi,%ebx
  401b3b:	8b 05 c3 35 20 00    	mov    0x2035c3(%rip),%eax        # 605104 <gets_cnt>
  401b41:	83 c0 64             	add    $0x64,%eax
  401b44:	3d 00 20 00 00       	cmp    $0x2000,%eax
  401b49:	0f 8f dd 00 00 00    	jg     401c2c <notify_server+0x11c>
  401b4f:	0f be 05 b2 35 20 00 	movsbl 0x2035b2(%rip),%eax        # 605108 <target_prefix>
  401b56:	83 3d f3 25 20 00 00 	cmpl   $0x0,0x2025f3(%rip)        # 604150 <notify>
  401b5d:	0f 84 e9 00 00 00    	je     401c4c <notify_server+0x13c>
  401b63:	8b 15 77 29 20 00    	mov    0x202977(%rip),%edx        # 6044e0 <authkey>
  401b69:	85 db                	test   %ebx,%ebx
  401b6b:	0f 84 e5 00 00 00    	je     401c56 <notify_server+0x146>
  401b71:	48 8d 2d b1 16 00 00 	lea    0x16b1(%rip),%rbp        # 403229 <_IO_stdin_used+0x359>
  401b78:	48 89 e7             	mov    %rsp,%rdi
  401b7b:	48 8d 0d 7e 29 20 00 	lea    0x20297e(%rip),%rcx        # 604500 <gets_buf>
  401b82:	51                   	push   %rcx
  401b83:	56                   	push   %rsi
  401b84:	50                   	push   %rax
  401b85:	52                   	push   %rdx
  401b86:	49 89 e9             	mov    %rbp,%r9
  401b89:	44 8b 05 98 25 20 00 	mov    0x202598(%rip),%r8d        # 604128 <target_id>
  401b90:	48 8d 0d 9c 16 00 00 	lea    0x169c(%rip),%rcx        # 403233 <_IO_stdin_used+0x363>
  401b97:	ba 00 20 00 00       	mov    $0x2000,%edx
  401b9c:	be 01 00 00 00       	mov    $0x1,%esi
  401ba1:	b8 00 00 00 00       	mov    $0x0,%eax
  401ba6:	e8 55 f2 ff ff       	callq  400e00 <__sprintf_chk@plt>
  401bab:	48 83 c4 20          	add    $0x20,%rsp
  401baf:	83 3d 9a 25 20 00 00 	cmpl   $0x0,0x20259a(%rip)        # 604150 <notify>
  401bb6:	0f 84 df 00 00 00    	je     401c9b <notify_server+0x18b>
  401bbc:	85 db                	test   %ebx,%ebx
  401bbe:	0f 84 c6 00 00 00    	je     401c8a <notify_server+0x17a>
  401bc4:	48 89 e1             	mov    %rsp,%rcx
  401bc7:	4c 8d 8c 24 00 20 00 	lea    0x2000(%rsp),%r9
  401bce:	00 
  401bcf:	41 b8 00 00 00 00    	mov    $0x0,%r8d
  401bd5:	48 8b 15 5c 25 20 00 	mov    0x20255c(%rip),%rdx        # 604138 <lab>
  401bdc:	48 8b 35 5d 25 20 00 	mov    0x20255d(%rip),%rsi        # 604140 <course>
  401be3:	48 8b 3d 46 25 20 00 	mov    0x202546(%rip),%rdi        # 604130 <user_id>
  401bea:	e8 91 11 00 00       	callq  402d80 <driver_post>
  401bef:	85 c0                	test   %eax,%eax
  401bf1:	78 6f                	js     401c62 <notify_server+0x152>
  401bf3:	48 8d 3d 7e 17 00 00 	lea    0x177e(%rip),%rdi        # 403378 <_IO_stdin_used+0x4a8>
  401bfa:	e8 61 f0 ff ff       	callq  400c60 <puts@plt>
  401bff:	48 8d 3d 55 16 00 00 	lea    0x1655(%rip),%rdi        # 40325b <_IO_stdin_used+0x38b>
  401c06:	e8 55 f0 ff ff       	callq  400c60 <puts@plt>
  401c0b:	48 8b 84 24 08 40 00 	mov    0x4008(%rsp),%rax
  401c12:	00 
  401c13:	64 48 33 04 25 28 00 	xor    %fs:0x28,%rax
  401c1a:	00 00 
  401c1c:	0f 85 07 01 00 00    	jne    401d29 <notify_server+0x219>
  401c22:	48 81 c4 18 40 00 00 	add    $0x4018,%rsp
  401c29:	5b                   	pop    %rbx
  401c2a:	5d                   	pop    %rbp
  401c2b:	c3                   	retq   
  401c2c:	48 8d 35 15 17 00 00 	lea    0x1715(%rip),%rsi        # 403348 <_IO_stdin_used+0x478>
  401c33:	bf 01 00 00 00       	mov    $0x1,%edi
  401c38:	b8 00 00 00 00       	mov    $0x0,%eax
  401c3d:	e8 4e f1 ff ff       	callq  400d90 <__printf_chk@plt>
  401c42:	bf 01 00 00 00       	mov    $0x1,%edi
  401c47:	e8 84 f1 ff ff       	callq  400dd0 <exit@plt>
  401c4c:	ba ff ff ff ff       	mov    $0xffffffff,%edx
  401c51:	e9 13 ff ff ff       	jmpq   401b69 <notify_server+0x59>
  401c56:	48 8d 2d d1 15 00 00 	lea    0x15d1(%rip),%rbp        # 40322e <_IO_stdin_used+0x35e>
  401c5d:	e9 16 ff ff ff       	jmpq   401b78 <notify_server+0x68>
  401c62:	48 8d 94 24 00 20 00 	lea    0x2000(%rsp),%rdx
  401c69:	00 
  401c6a:	48 8d 35 de 15 00 00 	lea    0x15de(%rip),%rsi        # 40324f <_IO_stdin_used+0x37f>
  401c71:	bf 01 00 00 00       	mov    $0x1,%edi
  401c76:	b8 00 00 00 00       	mov    $0x0,%eax
  401c7b:	e8 10 f1 ff ff       	callq  400d90 <__printf_chk@plt>
  401c80:	bf 01 00 00 00       	mov    $0x1,%edi
  401c85:	e8 46 f1 ff ff       	callq  400dd0 <exit@plt>
  401c8a:	48 8d 3d d4 15 00 00 	lea    0x15d4(%rip),%rdi        # 403265 <_IO_stdin_used+0x395>
  401c91:	e8 ca ef ff ff       	callq  400c60 <puts@plt>
  401c96:	e9 70 ff ff ff       	jmpq   401c0b <notify_server+0xfb>
  401c9b:	48 89 ea             	mov    %rbp,%rdx
  401c9e:	48 8d 35 0b 17 00 00 	lea    0x170b(%rip),%rsi        # 4033b0 <_IO_stdin_used+0x4e0>
  401ca5:	bf 01 00 00 00       	mov    $0x1,%edi
  401caa:	b8 00 00 00 00       	mov    $0x0,%eax
  401caf:	e8 dc f0 ff ff       	callq  400d90 <__printf_chk@plt>
  401cb4:	48 8b 15 75 24 20 00 	mov    0x202475(%rip),%rdx        # 604130 <user_id>
  401cbb:	48 8d 35 aa 15 00 00 	lea    0x15aa(%rip),%rsi        # 40326c <_IO_stdin_used+0x39c>
  401cc2:	bf 01 00 00 00       	mov    $0x1,%edi
  401cc7:	b8 00 00 00 00       	mov    $0x0,%eax
  401ccc:	e8 bf f0 ff ff       	callq  400d90 <__printf_chk@plt>
  401cd1:	48 8b 15 68 24 20 00 	mov    0x202468(%rip),%rdx        # 604140 <course>
  401cd8:	48 8d 35 9a 15 00 00 	lea    0x159a(%rip),%rsi        # 403279 <_IO_stdin_used+0x3a9>
  401cdf:	bf 01 00 00 00       	mov    $0x1,%edi
  401ce4:	b8 00 00 00 00       	mov    $0x0,%eax
  401ce9:	e8 a2 f0 ff ff       	callq  400d90 <__printf_chk@plt>
  401cee:	48 8b 15 43 24 20 00 	mov    0x202443(%rip),%rdx        # 604138 <lab>
  401cf5:	48 8d 35 89 15 00 00 	lea    0x1589(%rip),%rsi        # 403285 <_IO_stdin_used+0x3b5>
  401cfc:	bf 01 00 00 00       	mov    $0x1,%edi
  401d01:	b8 00 00 00 00       	mov    $0x0,%eax
  401d06:	e8 85 f0 ff ff       	callq  400d90 <__printf_chk@plt>
  401d0b:	48 89 e2             	mov    %rsp,%rdx
  401d0e:	48 8d 35 79 15 00 00 	lea    0x1579(%rip),%rsi        # 40328e <_IO_stdin_used+0x3be>
  401d15:	bf 01 00 00 00       	mov    $0x1,%edi
  401d1a:	b8 00 00 00 00       	mov    $0x0,%eax
  401d1f:	e8 6c f0 ff ff       	callq  400d90 <__printf_chk@plt>
  401d24:	e9 e2 fe ff ff       	jmpq   401c0b <notify_server+0xfb>
  401d29:	e8 52 ef ff ff       	callq  400c80 <__stack_chk_fail@plt>

0000000000401d2e <validate>:
  401d2e:	53                   	push   %rbx
  401d2f:	89 fb                	mov    %edi,%ebx
  401d31:	83 3d b0 27 20 00 00 	cmpl   $0x0,0x2027b0(%rip)        # 6044e8 <is_checker>
  401d38:	74 72                	je     401dac <validate+0x7e>
  401d3a:	39 3d 9c 27 20 00    	cmp    %edi,0x20279c(%rip)        # 6044dc <vlevel>
  401d40:	75 32                	jne    401d74 <validate+0x46>
  401d42:	8b 15 90 27 20 00    	mov    0x202790(%rip),%edx        # 6044d8 <check_level>
  401d48:	39 fa                	cmp    %edi,%edx
  401d4a:	75 3e                	jne    401d8a <validate+0x5c>
  401d4c:	0f be 15 b5 33 20 00 	movsbl 0x2033b5(%rip),%edx        # 605108 <target_prefix>
  401d53:	4c 8d 05 a6 27 20 00 	lea    0x2027a6(%rip),%r8        # 604500 <gets_buf>
  401d5a:	89 f9                	mov    %edi,%ecx
  401d5c:	48 8d 35 55 15 00 00 	lea    0x1555(%rip),%rsi        # 4032b8 <_IO_stdin_used+0x3e8>
  401d63:	bf 01 00 00 00       	mov    $0x1,%edi
  401d68:	b8 00 00 00 00       	mov    $0x0,%eax
  401d6d:	e8 1e f0 ff ff       	callq  400d90 <__printf_chk@plt>
  401d72:	5b                   	pop    %rbx
  401d73:	c3                   	retq   
  401d74:	48 8d 3d 1f 15 00 00 	lea    0x151f(%rip),%rdi        # 40329a <_IO_stdin_used+0x3ca>
  401d7b:	e8 e0 ee ff ff       	callq  400c60 <puts@plt>
  401d80:	b8 00 00 00 00       	mov    $0x0,%eax
  401d85:	e8 fc fc ff ff       	callq  401a86 <check_fail>
  401d8a:	89 f9                	mov    %edi,%ecx
  401d8c:	48 8d 35 45 16 00 00 	lea    0x1645(%rip),%rsi        # 4033d8 <_IO_stdin_used+0x508>
  401d93:	bf 01 00 00 00       	mov    $0x1,%edi
  401d98:	b8 00 00 00 00       	mov    $0x0,%eax
  401d9d:	e8 ee ef ff ff       	callq  400d90 <__printf_chk@plt>
  401da2:	b8 00 00 00 00       	mov    $0x0,%eax
  401da7:	e8 da fc ff ff       	callq  401a86 <check_fail>
  401dac:	39 3d 2a 27 20 00    	cmp    %edi,0x20272a(%rip)        # 6044dc <vlevel>
  401db2:	74 1a                	je     401dce <validate+0xa0>
  401db4:	48 8d 3d df 14 00 00 	lea    0x14df(%rip),%rdi        # 40329a <_IO_stdin_used+0x3ca>
  401dbb:	e8 a0 ee ff ff       	callq  400c60 <puts@plt>
  401dc0:	89 de                	mov    %ebx,%esi
  401dc2:	bf 00 00 00 00       	mov    $0x0,%edi
  401dc7:	e8 44 fd ff ff       	callq  401b10 <notify_server>
  401dcc:	eb a4                	jmp    401d72 <validate+0x44>
  401dce:	0f be 0d 33 33 20 00 	movsbl 0x203333(%rip),%ecx        # 605108 <target_prefix>
  401dd5:	89 fa                	mov    %edi,%edx
  401dd7:	48 8d 35 22 16 00 00 	lea    0x1622(%rip),%rsi        # 403400 <_IO_stdin_used+0x530>
  401dde:	bf 01 00 00 00       	mov    $0x1,%edi
  401de3:	b8 00 00 00 00       	mov    $0x0,%eax
  401de8:	e8 a3 ef ff ff       	callq  400d90 <__printf_chk@plt>
  401ded:	89 de                	mov    %ebx,%esi
  401def:	bf 01 00 00 00       	mov    $0x1,%edi
  401df4:	e8 17 fd ff ff       	callq  401b10 <notify_server>
  401df9:	e9 74 ff ff ff       	jmpq   401d72 <validate+0x44>

0000000000401dfe <fail>:
  401dfe:	48 83 ec 08          	sub    $0x8,%rsp
  401e02:	83 3d df 26 20 00 00 	cmpl   $0x0,0x2026df(%rip)        # 6044e8 <is_checker>
  401e09:	75 11                	jne    401e1c <fail+0x1e>
  401e0b:	89 fe                	mov    %edi,%esi
  401e0d:	bf 00 00 00 00       	mov    $0x0,%edi
  401e12:	e8 f9 fc ff ff       	callq  401b10 <notify_server>
  401e17:	48 83 c4 08          	add    $0x8,%rsp
  401e1b:	c3                   	retq   
  401e1c:	b8 00 00 00 00       	mov    $0x0,%eax
  401e21:	e8 60 fc ff ff       	callq  401a86 <check_fail>

0000000000401e26 <bushandler>:
  401e26:	48 83 ec 08          	sub    $0x8,%rsp
  401e2a:	83 3d b7 26 20 00 00 	cmpl   $0x0,0x2026b7(%rip)        # 6044e8 <is_checker>
  401e31:	74 16                	je     401e49 <bushandler+0x23>
  401e33:	48 8d 3d 93 14 00 00 	lea    0x1493(%rip),%rdi        # 4032cd <_IO_stdin_used+0x3fd>
  401e3a:	e8 21 ee ff ff       	callq  400c60 <puts@plt>
  401e3f:	b8 00 00 00 00       	mov    $0x0,%eax
  401e44:	e8 3d fc ff ff       	callq  401a86 <check_fail>
  401e49:	48 8d 3d e8 15 00 00 	lea    0x15e8(%rip),%rdi        # 403438 <_IO_stdin_used+0x568>
  401e50:	e8 0b ee ff ff       	callq  400c60 <puts@plt>
  401e55:	48 8d 3d 7b 14 00 00 	lea    0x147b(%rip),%rdi        # 4032d7 <_IO_stdin_used+0x407>
  401e5c:	e8 ff ed ff ff       	callq  400c60 <puts@plt>
  401e61:	be 00 00 00 00       	mov    $0x0,%esi
  401e66:	bf 00 00 00 00       	mov    $0x0,%edi
  401e6b:	e8 a0 fc ff ff       	callq  401b10 <notify_server>
  401e70:	bf 01 00 00 00       	mov    $0x1,%edi
  401e75:	e8 56 ef ff ff       	callq  400dd0 <exit@plt>

0000000000401e7a <seghandler>:
  401e7a:	48 83 ec 08          	sub    $0x8,%rsp
  401e7e:	83 3d 63 26 20 00 00 	cmpl   $0x0,0x202663(%rip)        # 6044e8 <is_checker>
  401e85:	74 16                	je     401e9d <seghandler+0x23>
  401e87:	48 8d 3d 5f 14 00 00 	lea    0x145f(%rip),%rdi        # 4032ed <_IO_stdin_used+0x41d>
  401e8e:	e8 cd ed ff ff       	callq  400c60 <puts@plt>
  401e93:	b8 00 00 00 00       	mov    $0x0,%eax
  401e98:	e8 e9 fb ff ff       	callq  401a86 <check_fail>
  401e9d:	48 8d 3d b4 15 00 00 	lea    0x15b4(%rip),%rdi        # 403458 <_IO_stdin_used+0x588>
  401ea4:	e8 b7 ed ff ff       	callq  400c60 <puts@plt>
  401ea9:	48 8d 3d 27 14 00 00 	lea    0x1427(%rip),%rdi        # 4032d7 <_IO_stdin_used+0x407>
  401eb0:	e8 ab ed ff ff       	callq  400c60 <puts@plt>
  401eb5:	be 00 00 00 00       	mov    $0x0,%esi
  401eba:	bf 00 00 00 00       	mov    $0x0,%edi
  401ebf:	e8 4c fc ff ff       	callq  401b10 <notify_server>
  401ec4:	bf 01 00 00 00       	mov    $0x1,%edi
  401ec9:	e8 02 ef ff ff       	callq  400dd0 <exit@plt>

0000000000401ece <illegalhandler>:
  401ece:	48 83 ec 08          	sub    $0x8,%rsp
  401ed2:	83 3d 0f 26 20 00 00 	cmpl   $0x0,0x20260f(%rip)        # 6044e8 <is_checker>
  401ed9:	74 16                	je     401ef1 <illegalhandler+0x23>
  401edb:	48 8d 3d 1e 14 00 00 	lea    0x141e(%rip),%rdi        # 403300 <_IO_stdin_used+0x430>
  401ee2:	e8 79 ed ff ff       	callq  400c60 <puts@plt>
  401ee7:	b8 00 00 00 00       	mov    $0x0,%eax
  401eec:	e8 95 fb ff ff       	callq  401a86 <check_fail>
  401ef1:	48 8d 3d 88 15 00 00 	lea    0x1588(%rip),%rdi        # 403480 <_IO_stdin_used+0x5b0>
  401ef8:	e8 63 ed ff ff       	callq  400c60 <puts@plt>
  401efd:	48 8d 3d d3 13 00 00 	lea    0x13d3(%rip),%rdi        # 4032d7 <_IO_stdin_used+0x407>
  401f04:	e8 57 ed ff ff       	callq  400c60 <puts@plt>
  401f09:	be 00 00 00 00       	mov    $0x0,%esi
  401f0e:	bf 00 00 00 00       	mov    $0x0,%edi
  401f13:	e8 f8 fb ff ff       	callq  401b10 <notify_server>
  401f18:	bf 01 00 00 00       	mov    $0x1,%edi
  401f1d:	e8 ae ee ff ff       	callq  400dd0 <exit@plt>

0000000000401f22 <sigalrmhandler>:
  401f22:	48 83 ec 08          	sub    $0x8,%rsp
  401f26:	83 3d bb 25 20 00 00 	cmpl   $0x0,0x2025bb(%rip)        # 6044e8 <is_checker>
  401f2d:	74 16                	je     401f45 <sigalrmhandler+0x23>
  401f2f:	48 8d 3d de 13 00 00 	lea    0x13de(%rip),%rdi        # 403314 <_IO_stdin_used+0x444>
  401f36:	e8 25 ed ff ff       	callq  400c60 <puts@plt>
  401f3b:	b8 00 00 00 00       	mov    $0x0,%eax
  401f40:	e8 41 fb ff ff       	callq  401a86 <check_fail>
  401f45:	ba 05 00 00 00       	mov    $0x5,%edx
  401f4a:	48 8d 35 5f 15 00 00 	lea    0x155f(%rip),%rsi        # 4034b0 <_IO_stdin_used+0x5e0>
  401f51:	bf 01 00 00 00       	mov    $0x1,%edi
  401f56:	b8 00 00 00 00       	mov    $0x0,%eax
  401f5b:	e8 30 ee ff ff       	callq  400d90 <__printf_chk@plt>
  401f60:	be 00 00 00 00       	mov    $0x0,%esi
  401f65:	bf 00 00 00 00       	mov    $0x0,%edi
  401f6a:	e8 a1 fb ff ff       	callq  401b10 <notify_server>
  401f6f:	bf 01 00 00 00       	mov    $0x1,%edi
  401f74:	e8 57 ee ff ff       	callq  400dd0 <exit@plt>

0000000000401f79 <launch>:
  401f79:	55                   	push   %rbp
  401f7a:	48 89 e5             	mov    %rsp,%rbp
  401f7d:	48 83 ec 10          	sub    $0x10,%rsp
  401f81:	48 89 fa             	mov    %rdi,%rdx
  401f84:	64 48 8b 04 25 28 00 	mov    %fs:0x28,%rax
  401f8b:	00 00 
  401f8d:	48 89 45 f8          	mov    %rax,-0x8(%rbp)
  401f91:	31 c0                	xor    %eax,%eax
  401f93:	48 8d 47 1e          	lea    0x1e(%rdi),%rax
  401f97:	48 83 e0 f0          	and    $0xfffffffffffffff0,%rax
  401f9b:	48 29 c4             	sub    %rax,%rsp
  401f9e:	48 8d 7c 24 0f       	lea    0xf(%rsp),%rdi
  401fa3:	48 83 e7 f0          	and    $0xfffffffffffffff0,%rdi
  401fa7:	be f4 00 00 00       	mov    $0xf4,%esi
  401fac:	e8 ef ec ff ff       	callq  400ca0 <memset@plt>
  401fb1:	48 8b 05 a8 21 20 00 	mov    0x2021a8(%rip),%rax        # 604160 <stdin@@GLIBC_2.2.5>
  401fb8:	48 39 05 11 25 20 00 	cmp    %rax,0x202511(%rip)        # 6044d0 <infile>
  401fbf:	74 3a                	je     401ffb <launch+0x82>
  401fc1:	c7 05 11 25 20 00 00 	movl   $0x0,0x202511(%rip)        # 6044dc <vlevel>
  401fc8:	00 00 00 
  401fcb:	b8 00 00 00 00       	mov    $0x0,%eax
  401fd0:	e8 16 fa ff ff       	callq  4019eb <test>
  401fd5:	83 3d 0c 25 20 00 00 	cmpl   $0x0,0x20250c(%rip)        # 6044e8 <is_checker>
  401fdc:	75 35                	jne    402013 <launch+0x9a>
  401fde:	48 8d 3d 4f 13 00 00 	lea    0x134f(%rip),%rdi        # 403334 <_IO_stdin_used+0x464>
  401fe5:	e8 76 ec ff ff       	callq  400c60 <puts@plt>
  401fea:	48 8b 45 f8          	mov    -0x8(%rbp),%rax
  401fee:	64 48 33 04 25 28 00 	xor    %fs:0x28,%rax
  401ff5:	00 00 
  401ff7:	75 30                	jne    402029 <launch+0xb0>
  401ff9:	c9                   	leaveq 
  401ffa:	c3                   	retq   
  401ffb:	48 8d 35 1a 13 00 00 	lea    0x131a(%rip),%rsi        # 40331c <_IO_stdin_used+0x44c>
  402002:	bf 01 00 00 00       	mov    $0x1,%edi
  402007:	b8 00 00 00 00       	mov    $0x0,%eax
  40200c:	e8 7f ed ff ff       	callq  400d90 <__printf_chk@plt>
  402011:	eb ae                	jmp    401fc1 <launch+0x48>
  402013:	48 8d 3d 0f 13 00 00 	lea    0x130f(%rip),%rdi        # 403329 <_IO_stdin_used+0x459>
  40201a:	e8 41 ec ff ff       	callq  400c60 <puts@plt>
  40201f:	b8 00 00 00 00       	mov    $0x0,%eax
  402024:	e8 5d fa ff ff       	callq  401a86 <check_fail>
  402029:	e8 52 ec ff ff       	callq  400c80 <__stack_chk_fail@plt>

000000000040202e <stable_launch>:
  40202e:	53                   	push   %rbx
  40202f:	48 89 3d 92 24 20 00 	mov    %rdi,0x202492(%rip)        # 6044c8 <global_offset>
  402036:	41 b9 00 00 00 00    	mov    $0x0,%r9d
  40203c:	41 b8 00 00 00 00    	mov    $0x0,%r8d
  402042:	b9 32 01 00 00       	mov    $0x132,%ecx
  402047:	ba 07 00 00 00       	mov    $0x7,%edx
  40204c:	be 00 00 10 00       	mov    $0x100000,%esi
  402051:	bf 00 60 58 55       	mov    $0x55586000,%edi
  402056:	e8 35 ec ff ff       	callq  400c90 <mmap@plt>
  40205b:	48 89 c3             	mov    %rax,%rbx
  40205e:	48 3d 00 60 58 55    	cmp    $0x55586000,%rax
  402064:	75 43                	jne    4020a9 <stable_launch+0x7b>
  402066:	48 8d 90 f8 ff 0f 00 	lea    0xffff8(%rax),%rdx
  40206d:	48 89 15 9c 30 20 00 	mov    %rdx,0x20309c(%rip)        # 605110 <stack_top>
  402074:	48 89 e0             	mov    %rsp,%rax
  402077:	48 89 d4             	mov    %rdx,%rsp
  40207a:	48 89 c2             	mov    %rax,%rdx
  40207d:	48 89 15 3c 24 20 00 	mov    %rdx,0x20243c(%rip)        # 6044c0 <global_save_stack>
  402084:	48 8b 3d 3d 24 20 00 	mov    0x20243d(%rip),%rdi        # 6044c8 <global_offset>
  40208b:	e8 e9 fe ff ff       	callq  401f79 <launch>
  402090:	48 8b 05 29 24 20 00 	mov    0x202429(%rip),%rax        # 6044c0 <global_save_stack>
  402097:	48 89 c4             	mov    %rax,%rsp
  40209a:	be 00 00 10 00       	mov    $0x100000,%esi
  40209f:	48 89 df             	mov    %rbx,%rdi
  4020a2:	e8 d9 ec ff ff       	callq  400d80 <munmap@plt>
  4020a7:	5b                   	pop    %rbx
  4020a8:	c3                   	retq   
  4020a9:	be 00 00 10 00       	mov    $0x100000,%esi
  4020ae:	48 89 c7             	mov    %rax,%rdi
  4020b1:	e8 ca ec ff ff       	callq  400d80 <munmap@plt>
  4020b6:	b9 00 60 58 55       	mov    $0x55586000,%ecx
  4020bb:	48 8d 15 26 14 00 00 	lea    0x1426(%rip),%rdx        # 4034e8 <_IO_stdin_used+0x618>
  4020c2:	be 01 00 00 00       	mov    $0x1,%esi
  4020c7:	48 8b 3d b2 20 20 00 	mov    0x2020b2(%rip),%rdi        # 604180 <stderr@@GLIBC_2.2.5>
  4020ce:	b8 00 00 00 00       	mov    $0x0,%eax
  4020d3:	e8 18 ed ff ff       	callq  400df0 <__fprintf_chk@plt>
  4020d8:	bf 01 00 00 00       	mov    $0x1,%edi
  4020dd:	e8 ee ec ff ff       	callq  400dd0 <exit@plt>

00000000004020e2 <rio_readinitb>:
  4020e2:	89 37                	mov    %esi,(%rdi)
  4020e4:	c7 47 04 00 00 00 00 	movl   $0x0,0x4(%rdi)
  4020eb:	48 8d 47 10          	lea    0x10(%rdi),%rax
  4020ef:	48 89 47 08          	mov    %rax,0x8(%rdi)
  4020f3:	c3                   	retq   

00000000004020f4 <sigalrm_handler>:
  4020f4:	48 83 ec 08          	sub    $0x8,%rsp
  4020f8:	b9 00 00 00 00       	mov    $0x0,%ecx
  4020fd:	48 8d 15 1c 14 00 00 	lea    0x141c(%rip),%rdx        # 403520 <trans_char+0x10>
  402104:	be 01 00 00 00       	mov    $0x1,%esi
  402109:	48 8b 3d 70 20 20 00 	mov    0x202070(%rip),%rdi        # 604180 <stderr@@GLIBC_2.2.5>
  402110:	b8 00 00 00 00       	mov    $0x0,%eax
  402115:	e8 d6 ec ff ff       	callq  400df0 <__fprintf_chk@plt>
  40211a:	bf 01 00 00 00       	mov    $0x1,%edi
  40211f:	e8 ac ec ff ff       	callq  400dd0 <exit@plt>

0000000000402124 <rio_writen>:
  402124:	41 55                	push   %r13
  402126:	41 54                	push   %r12
  402128:	55                   	push   %rbp
  402129:	53                   	push   %rbx
  40212a:	48 83 ec 08          	sub    $0x8,%rsp
  40212e:	41 89 fc             	mov    %edi,%r12d
  402131:	48 89 f5             	mov    %rsi,%rbp
  402134:	49 89 d5             	mov    %rdx,%r13
  402137:	48 89 d3             	mov    %rdx,%rbx
  40213a:	eb 06                	jmp    402142 <rio_writen+0x1e>
  40213c:	48 29 c3             	sub    %rax,%rbx
  40213f:	48 01 c5             	add    %rax,%rbp
  402142:	48 85 db             	test   %rbx,%rbx
  402145:	74 24                	je     40216b <rio_writen+0x47>
  402147:	48 89 da             	mov    %rbx,%rdx
  40214a:	48 89 ee             	mov    %rbp,%rsi
  40214d:	44 89 e7             	mov    %r12d,%edi
  402150:	e8 1b eb ff ff       	callq  400c70 <write@plt>
  402155:	48 85 c0             	test   %rax,%rax
  402158:	7f e2                	jg     40213c <rio_writen+0x18>
  40215a:	e8 c1 ea ff ff       	callq  400c20 <__errno_location@plt>
  40215f:	83 38 04             	cmpl   $0x4,(%rax)
  402162:	75 15                	jne    402179 <rio_writen+0x55>
  402164:	b8 00 00 00 00       	mov    $0x0,%eax
  402169:	eb d1                	jmp    40213c <rio_writen+0x18>
  40216b:	4c 89 e8             	mov    %r13,%rax
  40216e:	48 83 c4 08          	add    $0x8,%rsp
  402172:	5b                   	pop    %rbx
  402173:	5d                   	pop    %rbp
  402174:	41 5c                	pop    %r12
  402176:	41 5d                	pop    %r13
  402178:	c3                   	retq   
  402179:	48 c7 c0 ff ff ff ff 	mov    $0xffffffffffffffff,%rax
  402180:	eb ec                	jmp    40216e <rio_writen+0x4a>

0000000000402182 <rio_read>:
  402182:	41 55                	push   %r13
  402184:	41 54                	push   %r12
  402186:	55                   	push   %rbp
  402187:	53                   	push   %rbx
  402188:	48 83 ec 08          	sub    $0x8,%rsp
  40218c:	48 89 fb             	mov    %rdi,%rbx
  40218f:	49 89 f5             	mov    %rsi,%r13
  402192:	49 89 d4             	mov    %rdx,%r12
  402195:	eb 0a                	jmp    4021a1 <rio_read+0x1f>
  402197:	e8 84 ea ff ff       	callq  400c20 <__errno_location@plt>
  40219c:	83 38 04             	cmpl   $0x4,(%rax)
  40219f:	75 5c                	jne    4021fd <rio_read+0x7b>
  4021a1:	8b 6b 04             	mov    0x4(%rbx),%ebp
  4021a4:	85 ed                	test   %ebp,%ebp
  4021a6:	7f 24                	jg     4021cc <rio_read+0x4a>
  4021a8:	48 8d 6b 10          	lea    0x10(%rbx),%rbp
  4021ac:	8b 3b                	mov    (%rbx),%edi
  4021ae:	ba 00 20 00 00       	mov    $0x2000,%edx
  4021b3:	48 89 ee             	mov    %rbp,%rsi
  4021b6:	e8 15 eb ff ff       	callq  400cd0 <read@plt>
  4021bb:	89 43 04             	mov    %eax,0x4(%rbx)
  4021be:	85 c0                	test   %eax,%eax
  4021c0:	78 d5                	js     402197 <rio_read+0x15>
  4021c2:	85 c0                	test   %eax,%eax
  4021c4:	74 40                	je     402206 <rio_read+0x84>
  4021c6:	48 89 6b 08          	mov    %rbp,0x8(%rbx)
  4021ca:	eb d5                	jmp    4021a1 <rio_read+0x1f>
  4021cc:	89 e8                	mov    %ebp,%eax
  4021ce:	4c 39 e0             	cmp    %r12,%rax
  4021d1:	72 03                	jb     4021d6 <rio_read+0x54>
  4021d3:	44 89 e5             	mov    %r12d,%ebp
  4021d6:	4c 63 e5             	movslq %ebp,%r12
  4021d9:	48 8b 73 08          	mov    0x8(%rbx),%rsi
  4021dd:	4c 89 e2             	mov    %r12,%rdx
  4021e0:	4c 89 ef             	mov    %r13,%rdi
  4021e3:	e8 48 eb ff ff       	callq  400d30 <memcpy@plt>
  4021e8:	4c 01 63 08          	add    %r12,0x8(%rbx)
  4021ec:	29 6b 04             	sub    %ebp,0x4(%rbx)
  4021ef:	4c 89 e0             	mov    %r12,%rax
  4021f2:	48 83 c4 08          	add    $0x8,%rsp
  4021f6:	5b                   	pop    %rbx
  4021f7:	5d                   	pop    %rbp
  4021f8:	41 5c                	pop    %r12
  4021fa:	41 5d                	pop    %r13
  4021fc:	c3                   	retq   
  4021fd:	48 c7 c0 ff ff ff ff 	mov    $0xffffffffffffffff,%rax
  402204:	eb ec                	jmp    4021f2 <rio_read+0x70>
  402206:	b8 00 00 00 00       	mov    $0x0,%eax
  40220b:	eb e5                	jmp    4021f2 <rio_read+0x70>

000000000040220d <rio_readlineb>:
  40220d:	41 55                	push   %r13
  40220f:	41 54                	push   %r12
  402211:	55                   	push   %rbp
  402212:	53                   	push   %rbx
  402213:	48 83 ec 18          	sub    $0x18,%rsp
  402217:	49 89 fd             	mov    %rdi,%r13
  40221a:	48 89 f5             	mov    %rsi,%rbp
  40221d:	49 89 d4             	mov    %rdx,%r12
  402220:	64 48 8b 04 25 28 00 	mov    %fs:0x28,%rax
  402227:	00 00 
  402229:	48 89 44 24 08       	mov    %rax,0x8(%rsp)
  40222e:	31 c0                	xor    %eax,%eax
  402230:	bb 01 00 00 00       	mov    $0x1,%ebx
  402235:	4c 39 e3             	cmp    %r12,%rbx
  402238:	73 47                	jae    402281 <rio_readlineb+0x74>
  40223a:	48 8d 74 24 07       	lea    0x7(%rsp),%rsi
  40223f:	ba 01 00 00 00       	mov    $0x1,%edx
  402244:	4c 89 ef             	mov    %r13,%rdi
  402247:	e8 36 ff ff ff       	callq  402182 <rio_read>
  40224c:	83 f8 01             	cmp    $0x1,%eax
  40224f:	75 1c                	jne    40226d <rio_readlineb+0x60>
  402251:	48 8d 45 01          	lea    0x1(%rbp),%rax
  402255:	0f b6 54 24 07       	movzbl 0x7(%rsp),%edx
  40225a:	88 55 00             	mov    %dl,0x0(%rbp)
  40225d:	80 7c 24 07 0a       	cmpb   $0xa,0x7(%rsp)
  402262:	74 1a                	je     40227e <rio_readlineb+0x71>
  402264:	48 83 c3 01          	add    $0x1,%rbx
  402268:	48 89 c5             	mov    %rax,%rbp
  40226b:	eb c8                	jmp    402235 <rio_readlineb+0x28>
  40226d:	85 c0                	test   %eax,%eax
  40226f:	75 32                	jne    4022a3 <rio_readlineb+0x96>
  402271:	48 83 fb 01          	cmp    $0x1,%rbx
  402275:	75 0a                	jne    402281 <rio_readlineb+0x74>
  402277:	b8 00 00 00 00       	mov    $0x0,%eax
  40227c:	eb 0a                	jmp    402288 <rio_readlineb+0x7b>
  40227e:	48 89 c5             	mov    %rax,%rbp
  402281:	c6 45 00 00          	movb   $0x0,0x0(%rbp)
  402285:	48 89 d8             	mov    %rbx,%rax
  402288:	48 8b 4c 24 08       	mov    0x8(%rsp),%rcx
  40228d:	64 48 33 0c 25 28 00 	xor    %fs:0x28,%rcx
  402294:	00 00 
  402296:	75 14                	jne    4022ac <rio_readlineb+0x9f>
  402298:	48 83 c4 18          	add    $0x18,%rsp
  40229c:	5b                   	pop    %rbx
  40229d:	5d                   	pop    %rbp
  40229e:	41 5c                	pop    %r12
  4022a0:	41 5d                	pop    %r13
  4022a2:	c3                   	retq   
  4022a3:	48 c7 c0 ff ff ff ff 	mov    $0xffffffffffffffff,%rax
  4022aa:	eb dc                	jmp    402288 <rio_readlineb+0x7b>
  4022ac:	e8 cf e9 ff ff       	callq  400c80 <__stack_chk_fail@plt>

00000000004022b1 <urlencode>:
  4022b1:	41 54                	push   %r12
  4022b3:	55                   	push   %rbp
  4022b4:	53                   	push   %rbx
  4022b5:	48 83 ec 10          	sub    $0x10,%rsp
  4022b9:	48 89 fb             	mov    %rdi,%rbx
  4022bc:	48 89 f5             	mov    %rsi,%rbp
  4022bf:	64 48 8b 04 25 28 00 	mov    %fs:0x28,%rax
  4022c6:	00 00 
  4022c8:	48 89 44 24 08       	mov    %rax,0x8(%rsp)
  4022cd:	31 c0                	xor    %eax,%eax
  4022cf:	48 c7 c1 ff ff ff ff 	mov    $0xffffffffffffffff,%rcx
  4022d6:	f2 ae                	repnz scas %es:(%rdi),%al
  4022d8:	48 89 ce             	mov    %rcx,%rsi
  4022db:	48 f7 d6             	not    %rsi
  4022de:	8d 46 ff             	lea    -0x1(%rsi),%eax
  4022e1:	eb 0f                	jmp    4022f2 <urlencode+0x41>
  4022e3:	44 88 45 00          	mov    %r8b,0x0(%rbp)
  4022e7:	48 8d 6d 01          	lea    0x1(%rbp),%rbp
  4022eb:	48 83 c3 01          	add    $0x1,%rbx
  4022ef:	44 89 e0             	mov    %r12d,%eax
  4022f2:	44 8d 60 ff          	lea    -0x1(%rax),%r12d
  4022f6:	85 c0                	test   %eax,%eax
  4022f8:	0f 84 a8 00 00 00    	je     4023a6 <urlencode+0xf5>
  4022fe:	44 0f b6 03          	movzbl (%rbx),%r8d
  402302:	41 80 f8 2a          	cmp    $0x2a,%r8b
  402306:	0f 94 c2             	sete   %dl
  402309:	41 80 f8 2d          	cmp    $0x2d,%r8b
  40230d:	0f 94 c0             	sete   %al
  402310:	08 c2                	or     %al,%dl
  402312:	75 cf                	jne    4022e3 <urlencode+0x32>
  402314:	41 80 f8 2e          	cmp    $0x2e,%r8b
  402318:	74 c9                	je     4022e3 <urlencode+0x32>
  40231a:	41 80 f8 5f          	cmp    $0x5f,%r8b
  40231e:	74 c3                	je     4022e3 <urlencode+0x32>
  402320:	41 8d 40 d0          	lea    -0x30(%r8),%eax
  402324:	3c 09                	cmp    $0x9,%al
  402326:	76 bb                	jbe    4022e3 <urlencode+0x32>
  402328:	41 8d 40 bf          	lea    -0x41(%r8),%eax
  40232c:	3c 19                	cmp    $0x19,%al
  40232e:	76 b3                	jbe    4022e3 <urlencode+0x32>
  402330:	41 8d 40 9f          	lea    -0x61(%r8),%eax
  402334:	3c 19                	cmp    $0x19,%al
  402336:	76 ab                	jbe    4022e3 <urlencode+0x32>
  402338:	41 80 f8 20          	cmp    $0x20,%r8b
  40233c:	74 56                	je     402394 <urlencode+0xe3>
  40233e:	41 8d 40 e0          	lea    -0x20(%r8),%eax
  402342:	3c 5f                	cmp    $0x5f,%al
  402344:	0f 96 c2             	setbe  %dl
  402347:	41 80 f8 09          	cmp    $0x9,%r8b
  40234b:	0f 94 c0             	sete   %al
  40234e:	08 c2                	or     %al,%dl
  402350:	74 4f                	je     4023a1 <urlencode+0xf0>
  402352:	48 89 e7             	mov    %rsp,%rdi
  402355:	45 0f b6 c0          	movzbl %r8b,%r8d
  402359:	48 8d 0d 58 12 00 00 	lea    0x1258(%rip),%rcx        # 4035b8 <trans_char+0xa8>
  402360:	ba 08 00 00 00       	mov    $0x8,%edx
  402365:	be 01 00 00 00       	mov    $0x1,%esi
  40236a:	b8 00 00 00 00       	mov    $0x0,%eax
  40236f:	e8 8c ea ff ff       	callq  400e00 <__sprintf_chk@plt>
  402374:	0f b6 04 24          	movzbl (%rsp),%eax
  402378:	88 45 00             	mov    %al,0x0(%rbp)
  40237b:	0f b6 44 24 01       	movzbl 0x1(%rsp),%eax
  402380:	88 45 01             	mov    %al,0x1(%rbp)
  402383:	0f b6 44 24 02       	movzbl 0x2(%rsp),%eax
  402388:	88 45 02             	mov    %al,0x2(%rbp)
  40238b:	48 8d 6d 03          	lea    0x3(%rbp),%rbp
  40238f:	e9 57 ff ff ff       	jmpq   4022eb <urlencode+0x3a>
  402394:	c6 45 00 2b          	movb   $0x2b,0x0(%rbp)
  402398:	48 8d 6d 01          	lea    0x1(%rbp),%rbp
  40239c:	e9 4a ff ff ff       	jmpq   4022eb <urlencode+0x3a>
  4023a1:	b8 ff ff ff ff       	mov    $0xffffffff,%eax
  4023a6:	48 8b 74 24 08       	mov    0x8(%rsp),%rsi
  4023ab:	64 48 33 34 25 28 00 	xor    %fs:0x28,%rsi
  4023b2:	00 00 
  4023b4:	75 09                	jne    4023bf <urlencode+0x10e>
  4023b6:	48 83 c4 10          	add    $0x10,%rsp
  4023ba:	5b                   	pop    %rbx
  4023bb:	5d                   	pop    %rbp
  4023bc:	41 5c                	pop    %r12
  4023be:	c3                   	retq   
  4023bf:	e8 bc e8 ff ff       	callq  400c80 <__stack_chk_fail@plt>

00000000004023c4 <submitr>:
  4023c4:	41 57                	push   %r15
  4023c6:	41 56                	push   %r14
  4023c8:	41 55                	push   %r13
  4023ca:	41 54                	push   %r12
  4023cc:	55                   	push   %rbp
  4023cd:	53                   	push   %rbx
  4023ce:	48 81 ec 58 a0 00 00 	sub    $0xa058,%rsp
  4023d5:	48 89 7c 24 08       	mov    %rdi,0x8(%rsp)
  4023da:	41 89 f4             	mov    %esi,%r12d
  4023dd:	49 89 d7             	mov    %rdx,%r15
  4023e0:	49 89 ce             	mov    %rcx,%r14
  4023e3:	4c 89 04 24          	mov    %r8,(%rsp)
  4023e7:	4d 89 cd             	mov    %r9,%r13
  4023ea:	48 8b ac 24 90 a0 00 	mov    0xa090(%rsp),%rbp
  4023f1:	00 
  4023f2:	64 48 8b 04 25 28 00 	mov    %fs:0x28,%rax
  4023f9:	00 00 
  4023fb:	48 89 84 24 48 a0 00 	mov    %rax,0xa048(%rsp)
  402402:	00 
  402403:	31 c0                	xor    %eax,%eax
  402405:	ba 00 00 00 00       	mov    $0x0,%edx
  40240a:	be 01 00 00 00       	mov    $0x1,%esi
  40240f:	bf 02 00 00 00       	mov    $0x2,%edi
  402414:	e8 f7 e9 ff ff       	callq  400e10 <socket@plt>
  402419:	85 c0                	test   %eax,%eax
  40241b:	0f 88 ff 02 00 00    	js     402720 <submitr+0x35c>
  402421:	89 c3                	mov    %eax,%ebx
  402423:	66 c7 44 24 10 02 00 	movw   $0x2,0x10(%rsp)
  40242a:	66 41 c1 cc 08       	ror    $0x8,%r12w
  40242f:	66 44 89 64 24 12    	mov    %r12w,0x12(%rsp)
  402435:	4c 8d 64 24 10       	lea    0x10(%rsp),%r12
  40243a:	48 8d 74 24 14       	lea    0x14(%rsp),%rsi
  40243f:	48 8d 3d 79 11 00 00 	lea    0x1179(%rip),%rdi        # 4035bf <trans_char+0xaf>
  402446:	b8 00 00 00 00       	mov    $0x0,%eax
  40244b:	e8 00 e9 ff ff       	callq  400d50 <inet_aton@plt>
  402450:	ba 10 00 00 00       	mov    $0x10,%edx
  402455:	4c 89 e6             	mov    %r12,%rsi
  402458:	89 df                	mov    %ebx,%edi
  40245a:	e8 81 e9 ff ff       	callq  400de0 <connect@plt>
  40245f:	85 c0                	test   %eax,%eax
  402461:	0f 88 05 03 00 00    	js     40276c <submitr+0x3a8>
  402467:	48 c7 c6 ff ff ff ff 	mov    $0xffffffffffffffff,%rsi
  40246e:	b8 00 00 00 00       	mov    $0x0,%eax
  402473:	48 89 f1             	mov    %rsi,%rcx
  402476:	4c 89 ef             	mov    %r13,%rdi
  402479:	f2 ae                	repnz scas %es:(%rdi),%al
  40247b:	48 89 ca             	mov    %rcx,%rdx
  40247e:	48 f7 d2             	not    %rdx
  402481:	48 89 f1             	mov    %rsi,%rcx
  402484:	4c 89 ff             	mov    %r15,%rdi
  402487:	f2 ae                	repnz scas %es:(%rdi),%al
  402489:	48 f7 d1             	not    %rcx
  40248c:	49 89 c8             	mov    %rcx,%r8
  40248f:	48 89 f1             	mov    %rsi,%rcx
  402492:	4c 89 f7             	mov    %r14,%rdi
  402495:	f2 ae                	repnz scas %es:(%rdi),%al
  402497:	48 f7 d1             	not    %rcx
  40249a:	4d 8d 44 08 fe       	lea    -0x2(%r8,%rcx,1),%r8
  40249f:	48 89 f1             	mov    %rsi,%rcx
  4024a2:	48 8b 3c 24          	mov    (%rsp),%rdi
  4024a6:	f2 ae                	repnz scas %es:(%rdi),%al
  4024a8:	48 89 c8             	mov    %rcx,%rax
  4024ab:	48 f7 d0             	not    %rax
  4024ae:	49 8d 4c 00 ff       	lea    -0x1(%r8,%rax,1),%rcx
  4024b3:	48 8d 44 52 fd       	lea    -0x3(%rdx,%rdx,2),%rax
  4024b8:	48 8d 84 01 80 00 00 	lea    0x80(%rcx,%rax,1),%rax
  4024bf:	00 
  4024c0:	48 3d 00 20 00 00    	cmp    $0x2000,%rax
  4024c6:	0f 87 fa 02 00 00    	ja     4027c6 <submitr+0x402>
  4024cc:	48 8d b4 24 40 40 00 	lea    0x4040(%rsp),%rsi
  4024d3:	00 
  4024d4:	b9 00 04 00 00       	mov    $0x400,%ecx
  4024d9:	b8 00 00 00 00       	mov    $0x0,%eax
  4024de:	48 89 f7             	mov    %rsi,%rdi
  4024e1:	f3 48 ab             	rep stos %rax,%es:(%rdi)
  4024e4:	4c 89 ef             	mov    %r13,%rdi
  4024e7:	e8 c5 fd ff ff       	callq  4022b1 <urlencode>
  4024ec:	85 c0                	test   %eax,%eax
  4024ee:	0f 88 45 03 00 00    	js     402839 <submitr+0x475>
  4024f4:	4c 8d a4 24 40 20 00 	lea    0x2040(%rsp),%r12
  4024fb:	00 
  4024fc:	ff 74 24 08          	pushq  0x8(%rsp)
  402500:	48 8d 84 24 48 40 00 	lea    0x4048(%rsp),%rax
  402507:	00 
  402508:	50                   	push   %rax
  402509:	4d 89 f9             	mov    %r15,%r9
  40250c:	4d 89 f0             	mov    %r14,%r8
  40250f:	48 8d 0d 32 10 00 00 	lea    0x1032(%rip),%rcx        # 403548 <trans_char+0x38>
  402516:	ba 00 20 00 00       	mov    $0x2000,%edx
  40251b:	be 01 00 00 00       	mov    $0x1,%esi
  402520:	4c 89 e7             	mov    %r12,%rdi
  402523:	b8 00 00 00 00       	mov    $0x0,%eax
  402528:	e8 d3 e8 ff ff       	callq  400e00 <__sprintf_chk@plt>
  40252d:	48 c7 c1 ff ff ff ff 	mov    $0xffffffffffffffff,%rcx
  402534:	b8 00 00 00 00       	mov    $0x0,%eax
  402539:	4c 89 e7             	mov    %r12,%rdi
  40253c:	f2 ae                	repnz scas %es:(%rdi),%al
  40253e:	48 89 ca             	mov    %rcx,%rdx
  402541:	48 f7 d2             	not    %rdx
  402544:	48 8d 52 ff          	lea    -0x1(%rdx),%rdx
  402548:	4c 89 e6             	mov    %r12,%rsi
  40254b:	89 df                	mov    %ebx,%edi
  40254d:	e8 d2 fb ff ff       	callq  402124 <rio_writen>
  402552:	48 83 c4 10          	add    $0x10,%rsp
  402556:	48 85 c0             	test   %rax,%rax
  402559:	0f 88 65 03 00 00    	js     4028c4 <submitr+0x500>
  40255f:	4c 8d 64 24 20       	lea    0x20(%rsp),%r12
  402564:	89 de                	mov    %ebx,%esi
  402566:	4c 89 e7             	mov    %r12,%rdi
  402569:	e8 74 fb ff ff       	callq  4020e2 <rio_readinitb>
  40256e:	48 8d b4 24 40 20 00 	lea    0x2040(%rsp),%rsi
  402575:	00 
  402576:	ba 00 20 00 00       	mov    $0x2000,%edx
  40257b:	4c 89 e7             	mov    %r12,%rdi
  40257e:	e8 8a fc ff ff       	callq  40220d <rio_readlineb>
  402583:	48 85 c0             	test   %rax,%rax
  402586:	0f 8e a7 03 00 00    	jle    402933 <submitr+0x56f>
  40258c:	48 8d 94 24 40 60 00 	lea    0x6040(%rsp),%rdx
  402593:	00 
  402594:	41 be 00 00 00 00    	mov    $0x0,%r14d
  40259a:	b9 00 04 00 00       	mov    $0x400,%ecx
  40259f:	48 89 d7             	mov    %rdx,%rdi
  4025a2:	4c 89 f0             	mov    %r14,%rax
  4025a5:	f3 48 ab             	rep stos %rax,%es:(%rdi)
  4025a8:	48 8b 84 24 40 20 00 	mov    0x2040(%rsp),%rax
  4025af:	00 
  4025b0:	48 89 84 24 40 60 00 	mov    %rax,0x6040(%rsp)
  4025b7:	00 
  4025b8:	c6 84 24 3f 20 00 00 	movb   $0x0,0x203f(%rsp)
  4025bf:	00 
  4025c0:	48 8d bc 24 3c 20 00 	lea    0x203c(%rsp),%rdi
  4025c7:	00 
  4025c8:	4c 8d ac 24 40 20 00 	lea    0x2040(%rsp),%r13
  4025cf:	00 
  4025d0:	0f b7 84 24 49 20 00 	movzwl 0x2049(%rsp),%eax
  4025d7:	00 
  4025d8:	66 89 84 24 3c 20 00 	mov    %ax,0x203c(%rsp)
  4025df:	00 
  4025e0:	0f b6 84 24 4b 20 00 	movzbl 0x204b(%rsp),%eax
  4025e7:	00 
  4025e8:	88 84 24 3e 20 00 00 	mov    %al,0x203e(%rsp)
  4025ef:	ba 0a 00 00 00       	mov    $0xa,%edx
  4025f4:	be 00 00 00 00       	mov    $0x0,%esi
  4025f9:	e8 22 e7 ff ff       	callq  400d20 <strtol@plt>
  4025fe:	49 89 c4             	mov    %rax,%r12
  402601:	4c 8d 84 24 40 80 00 	lea    0x8040(%rsp),%r8
  402608:	00 
  402609:	b9 00 04 00 00       	mov    $0x400,%ecx
  40260e:	4c 89 c7             	mov    %r8,%rdi
  402611:	4c 89 f0             	mov    %r14,%rax
  402614:	f3 48 ab             	rep stos %rax,%es:(%rdi)
  402617:	48 8d bc 24 33 20 00 	lea    0x2033(%rsp),%rdi
  40261e:	00 
  40261f:	48 c7 c1 ff ff ff ff 	mov    $0xffffffffffffffff,%rcx
  402626:	f2 ae                	repnz scas %es:(%rdi),%al
  402628:	48 89 ca             	mov    %rcx,%rdx
  40262b:	48 f7 d2             	not    %rdx
  40262e:	48 8d 52 ff          	lea    -0x1(%rdx),%rdx
  402632:	49 8d 75 0d          	lea    0xd(%r13),%rsi
  402636:	b9 00 20 00 00       	mov    $0x2000,%ecx
  40263b:	4c 89 c7             	mov    %r8,%rdi
  40263e:	e8 cd e6 ff ff       	callq  400d10 <__memcpy_chk@plt>
  402643:	48 8d b4 24 40 20 00 	lea    0x2040(%rsp),%rsi
  40264a:	00 
  40264b:	b9 03 00 00 00       	mov    $0x3,%ecx
  402650:	48 8d 3d 7c 0f 00 00 	lea    0xf7c(%rip),%rdi        # 4035d3 <trans_char+0xc3>
  402657:	f3 a6                	repz cmpsb %es:(%rdi),%ds:(%rsi)
  402659:	0f 97 c0             	seta   %al
  40265c:	1c 00                	sbb    $0x0,%al
  40265e:	84 c0                	test   %al,%al
  402660:	0f 84 4b 03 00 00    	je     4029b1 <submitr+0x5ed>
  402666:	48 8d b4 24 40 20 00 	lea    0x2040(%rsp),%rsi
  40266d:	00 
  40266e:	48 8d 7c 24 20       	lea    0x20(%rsp),%rdi
  402673:	ba 00 20 00 00       	mov    $0x2000,%edx
  402678:	e8 90 fb ff ff       	callq  40220d <rio_readlineb>
  40267d:	48 85 c0             	test   %rax,%rax
  402680:	7f c1                	jg     402643 <submitr+0x27f>
  402682:	48 b8 45 72 72 6f 72 	movabs $0x43203a726f727245,%rax
  402689:	3a 20 43 
  40268c:	48 ba 6c 69 65 6e 74 	movabs $0x6e7520746e65696c,%rdx
  402693:	20 75 6e 
  402696:	48 89 45 00          	mov    %rax,0x0(%rbp)
  40269a:	48 89 55 08          	mov    %rdx,0x8(%rbp)
  40269e:	48 b8 61 62 6c 65 20 	movabs $0x206f7420656c6261,%rax
  4026a5:	74 6f 20 
  4026a8:	48 ba 72 65 61 64 20 	movabs $0x6165682064616572,%rdx
  4026af:	68 65 61 
  4026b2:	48 89 45 10          	mov    %rax,0x10(%rbp)
  4026b6:	48 89 55 18          	mov    %rdx,0x18(%rbp)
  4026ba:	48 b8 64 65 72 73 20 	movabs $0x6f72662073726564,%rax
  4026c1:	66 72 6f 
  4026c4:	48 ba 6d 20 74 68 65 	movabs $0x657220656874206d,%rdx
  4026cb:	20 72 65 
  4026ce:	48 89 45 20          	mov    %rax,0x20(%rbp)
  4026d2:	48 89 55 28          	mov    %rdx,0x28(%rbp)
  4026d6:	48 b8 73 75 6c 74 20 	movabs $0x72657320746c7573,%rax
  4026dd:	73 65 72 
  4026e0:	48 89 45 30          	mov    %rax,0x30(%rbp)
  4026e4:	c7 45 38 76 65 72 00 	movl   $0x726576,0x38(%rbp)
  4026eb:	89 df                	mov    %ebx,%edi
  4026ed:	e8 ce e5 ff ff       	callq  400cc0 <close@plt>
  4026f2:	b8 ff ff ff ff       	mov    $0xffffffff,%eax
  4026f7:	48 8b 9c 24 48 a0 00 	mov    0xa048(%rsp),%rbx
  4026fe:	00 
  4026ff:	64 48 33 1c 25 28 00 	xor    %fs:0x28,%rbx
  402706:	00 00 
  402708:	0f 85 14 04 00 00    	jne    402b22 <submitr+0x75e>
  40270e:	48 81 c4 58 a0 00 00 	add    $0xa058,%rsp
  402715:	5b                   	pop    %rbx
  402716:	5d                   	pop    %rbp
  402717:	41 5c                	pop    %r12
  402719:	41 5d                	pop    %r13
  40271b:	41 5e                	pop    %r14
  40271d:	41 5f                	pop    %r15
  40271f:	c3                   	retq   
  402720:	48 b8 45 72 72 6f 72 	movabs $0x43203a726f727245,%rax
  402727:	3a 20 43 
  40272a:	48 ba 6c 69 65 6e 74 	movabs $0x6e7520746e65696c,%rdx
  402731:	20 75 6e 
  402734:	48 89 45 00          	mov    %rax,0x0(%rbp)
  402738:	48 89 55 08          	mov    %rdx,0x8(%rbp)
  40273c:	48 b8 61 62 6c 65 20 	movabs $0x206f7420656c6261,%rax
  402743:	74 6f 20 
  402746:	48 ba 63 72 65 61 74 	movabs $0x7320657461657263,%rdx
  40274d:	65 20 73 
  402750:	48 89 45 10          	mov    %rax,0x10(%rbp)
  402754:	48 89 55 18          	mov    %rdx,0x18(%rbp)
  402758:	c7 45 20 6f 63 6b 65 	movl   $0x656b636f,0x20(%rbp)
  40275f:	66 c7 45 24 74 00    	movw   $0x74,0x24(%rbp)
  402765:	b8 ff ff ff ff       	mov    $0xffffffff,%eax
  40276a:	eb 8b                	jmp    4026f7 <submitr+0x333>
  40276c:	48 b8 45 72 72 6f 72 	movabs $0x55203a726f727245,%rax
  402773:	3a 20 55 
  402776:	48 ba 6e 61 62 6c 65 	movabs $0x6f7420656c62616e,%rdx
  40277d:	20 74 6f 
  402780:	48 89 45 00          	mov    %rax,0x0(%rbp)
  402784:	48 89 55 08          	mov    %rdx,0x8(%rbp)
  402788:	48 b8 20 63 6f 6e 6e 	movabs $0x7463656e6e6f6320,%rax
  40278f:	65 63 74 
  402792:	48 ba 20 74 6f 20 74 	movabs $0x20656874206f7420,%rdx
  402799:	68 65 20 
  40279c:	48 89 45 10          	mov    %rax,0x10(%rbp)
  4027a0:	48 89 55 18          	mov    %rdx,0x18(%rbp)
  4027a4:	c7 45 20 73 65 72 76 	movl   $0x76726573,0x20(%rbp)
  4027ab:	66 c7 45 24 65 72    	movw   $0x7265,0x24(%rbp)
  4027b1:	c6 45 26 00          	movb   $0x0,0x26(%rbp)
  4027b5:	89 df                	mov    %ebx,%edi
  4027b7:	e8 04 e5 ff ff       	callq  400cc0 <close@plt>
  4027bc:	b8 ff ff ff ff       	mov    $0xffffffff,%eax
  4027c1:	e9 31 ff ff ff       	jmpq   4026f7 <submitr+0x333>
  4027c6:	48 b8 45 72 72 6f 72 	movabs $0x52203a726f727245,%rax
  4027cd:	3a 20 52 
  4027d0:	48 ba 65 73 75 6c 74 	movabs $0x747320746c757365,%rdx
  4027d7:	20 73 74 
  4027da:	48 89 45 00          	mov    %rax,0x0(%rbp)
  4027de:	48 89 55 08          	mov    %rdx,0x8(%rbp)
  4027e2:	48 b8 72 69 6e 67 20 	movabs $0x6f6f7420676e6972,%rax
  4027e9:	74 6f 6f 
  4027ec:	48 ba 20 6c 61 72 67 	movabs $0x202e656772616c20,%rdx
  4027f3:	65 2e 20 
  4027f6:	48 89 45 10          	mov    %rax,0x10(%rbp)
  4027fa:	48 89 55 18          	mov    %rdx,0x18(%rbp)
  4027fe:	48 b8 49 6e 63 72 65 	movabs $0x6573616572636e49,%rax
  402805:	61 73 65 
  402808:	48 ba 20 53 55 42 4d 	movabs $0x5254494d42555320,%rdx
  40280f:	49 54 52 
  402812:	48 89 45 20          	mov    %rax,0x20(%rbp)
  402816:	48 89 55 28          	mov    %rdx,0x28(%rbp)
  40281a:	48 b8 5f 4d 41 58 42 	movabs $0x46554258414d5f,%rax
  402821:	55 46 00 
  402824:	48 89 45 30          	mov    %rax,0x30(%rbp)
  402828:	89 df                	mov    %ebx,%edi
  40282a:	e8 91 e4 ff ff       	callq  400cc0 <close@plt>
  40282f:	b8 ff ff ff ff       	mov    $0xffffffff,%eax
  402834:	e9 be fe ff ff       	jmpq   4026f7 <submitr+0x333>
  402839:	48 b8 45 72 72 6f 72 	movabs $0x52203a726f727245,%rax
  402840:	3a 20 52 
  402843:	48 ba 65 73 75 6c 74 	movabs $0x747320746c757365,%rdx
  40284a:	20 73 74 
  40284d:	48 89 45 00          	mov    %rax,0x0(%rbp)
  402851:	48 89 55 08          	mov    %rdx,0x8(%rbp)
  402855:	48 b8 72 69 6e 67 20 	movabs $0x6e6f6320676e6972,%rax
  40285c:	63 6f 6e 
  40285f:	48 ba 74 61 69 6e 73 	movabs $0x6e6120736e696174,%rdx
  402866:	20 61 6e 
  402869:	48 89 45 10          	mov    %rax,0x10(%rbp)
  40286d:	48 89 55 18          	mov    %rdx,0x18(%rbp)
  402871:	48 b8 20 69 6c 6c 65 	movabs $0x6c6167656c6c6920,%rax
  402878:	67 61 6c 
  40287b:	48 ba 20 6f 72 20 75 	movabs $0x72706e7520726f20,%rdx
  402882:	6e 70 72 
  402885:	48 89 45 20          	mov    %rax,0x20(%rbp)
  402889:	48 89 55 28          	mov    %rdx,0x28(%rbp)
  40288d:	48 b8 69 6e 74 61 62 	movabs $0x20656c6261746e69,%rax
  402894:	6c 65 20 
  402897:	48 ba 63 68 61 72 61 	movabs $0x6574636172616863,%rdx
  40289e:	63 74 65 
  4028a1:	48 89 45 30          	mov    %rax,0x30(%rbp)
  4028a5:	48 89 55 38          	mov    %rdx,0x38(%rbp)
  4028a9:	66 c7 45 40 72 2e    	movw   $0x2e72,0x40(%rbp)
  4028af:	c6 45 42 00          	movb   $0x0,0x42(%rbp)
  4028b3:	89 df                	mov    %ebx,%edi
  4028b5:	e8 06 e4 ff ff       	callq  400cc0 <close@plt>
  4028ba:	b8 ff ff ff ff       	mov    $0xffffffff,%eax
  4028bf:	e9 33 fe ff ff       	jmpq   4026f7 <submitr+0x333>
  4028c4:	48 b8 45 72 72 6f 72 	movabs $0x43203a726f727245,%rax
  4028cb:	3a 20 43 
  4028ce:	48 ba 6c 69 65 6e 74 	movabs $0x6e7520746e65696c,%rdx
  4028d5:	20 75 6e 
  4028d8:	48 89 45 00          	mov    %rax,0x0(%rbp)
  4028dc:	48 89 55 08          	mov    %rdx,0x8(%rbp)
  4028e0:	48 b8 61 62 6c 65 20 	movabs $0x206f7420656c6261,%rax
  4028e7:	74 6f 20 
  4028ea:	48 ba 77 72 69 74 65 	movabs $0x6f74206574697277,%rdx
  4028f1:	20 74 6f 
  4028f4:	48 89 45 10          	mov    %rax,0x10(%rbp)
  4028f8:	48 89 55 18          	mov    %rdx,0x18(%rbp)
  4028fc:	48 b8 20 74 68 65 20 	movabs $0x7365722065687420,%rax
  402903:	72 65 73 
  402906:	48 ba 75 6c 74 20 73 	movabs $0x7672657320746c75,%rdx
  40290d:	65 72 76 
  402910:	48 89 45 20          	mov    %rax,0x20(%rbp)
  402914:	48 89 55 28          	mov    %rdx,0x28(%rbp)
  402918:	66 c7 45 30 65 72    	movw   $0x7265,0x30(%rbp)
  40291e:	c6 45 32 00          	movb   $0x0,0x32(%rbp)
  402922:	89 df                	mov    %ebx,%edi
  402924:	e8 97 e3 ff ff       	callq  400cc0 <close@plt>
  402929:	b8 ff ff ff ff       	mov    $0xffffffff,%eax
  40292e:	e9 c4 fd ff ff       	jmpq   4026f7 <submitr+0x333>
  402933:	48 b8 45 72 72 6f 72 	movabs $0x43203a726f727245,%rax
  40293a:	3a 20 43 
  40293d:	48 ba 6c 69 65 6e 74 	movabs $0x6e7520746e65696c,%rdx
  402944:	20 75 6e 
  402947:	48 89 45 00          	mov    %rax,0x0(%rbp)
  40294b:	48 89 55 08          	mov    %rdx,0x8(%rbp)
  40294f:	48 b8 61 62 6c 65 20 	movabs $0x206f7420656c6261,%rax
  402956:	74 6f 20 
  402959:	48 ba 72 65 61 64 20 	movabs $0x7269662064616572,%rdx
  402960:	66 69 72 
  402963:	48 89 45 10          	mov    %rax,0x10(%rbp)
  402967:	48 89 55 18          	mov    %rdx,0x18(%rbp)
  40296b:	48 b8 73 74 20 68 65 	movabs $0x6564616568207473,%rax
  402972:	61 64 65 
  402975:	48 ba 72 20 66 72 6f 	movabs $0x72206d6f72662072,%rdx
  40297c:	6d 20 72 
  40297f:	48 89 45 20          	mov    %rax,0x20(%rbp)
  402983:	48 89 55 28          	mov    %rdx,0x28(%rbp)
  402987:	48 b8 65 73 75 6c 74 	movabs $0x657320746c757365,%rax
  40298e:	20 73 65 
  402991:	48 89 45 30          	mov    %rax,0x30(%rbp)
  402995:	c7 45 38 72 76 65 72 	movl   $0x72657672,0x38(%rbp)
  40299c:	c6 45 3c 00          	movb   $0x0,0x3c(%rbp)
  4029a0:	89 df                	mov    %ebx,%edi
  4029a2:	e8 19 e3 ff ff       	callq  400cc0 <close@plt>
  4029a7:	b8 ff ff ff ff       	mov    $0xffffffff,%eax
  4029ac:	e9 46 fd ff ff       	jmpq   4026f7 <submitr+0x333>
  4029b1:	48 8d b4 24 40 20 00 	lea    0x2040(%rsp),%rsi
  4029b8:	00 
  4029b9:	48 8d 7c 24 20       	lea    0x20(%rsp),%rdi
  4029be:	ba 00 20 00 00       	mov    $0x2000,%edx
  4029c3:	e8 45 f8 ff ff       	callq  40220d <rio_readlineb>
  4029c8:	48 85 c0             	test   %rax,%rax
  4029cb:	0f 8e 91 00 00 00    	jle    402a62 <submitr+0x69e>
  4029d1:	41 81 fc c8 00 00 00 	cmp    $0xc8,%r12d
  4029d8:	0f 85 08 01 00 00    	jne    402ae6 <submitr+0x722>
  4029de:	48 8d b4 24 40 20 00 	lea    0x2040(%rsp),%rsi
  4029e5:	00 
  4029e6:	48 89 ef             	mov    %rbp,%rdi
  4029e9:	e8 62 e2 ff ff       	callq  400c50 <strcpy@plt>
  4029ee:	89 df                	mov    %ebx,%edi
  4029f0:	e8 cb e2 ff ff       	callq  400cc0 <close@plt>
  4029f5:	b9 04 00 00 00       	mov    $0x4,%ecx
  4029fa:	48 8d 3d cc 0b 00 00 	lea    0xbcc(%rip),%rdi        # 4035cd <trans_char+0xbd>
  402a01:	48 89 ee             	mov    %rbp,%rsi
  402a04:	f3 a6                	repz cmpsb %es:(%rdi),%ds:(%rsi)
  402a06:	0f 97 c0             	seta   %al
  402a09:	1c 00                	sbb    $0x0,%al
  402a0b:	0f be c0             	movsbl %al,%eax
  402a0e:	85 c0                	test   %eax,%eax
  402a10:	0f 84 e1 fc ff ff    	je     4026f7 <submitr+0x333>
  402a16:	b9 05 00 00 00       	mov    $0x5,%ecx
  402a1b:	48 8d 3d af 0b 00 00 	lea    0xbaf(%rip),%rdi        # 4035d1 <trans_char+0xc1>
  402a22:	48 89 ee             	mov    %rbp,%rsi
  402a25:	f3 a6                	repz cmpsb %es:(%rdi),%ds:(%rsi)
  402a27:	0f 97 c0             	seta   %al
  402a2a:	1c 00                	sbb    $0x0,%al
  402a2c:	0f be c0             	movsbl %al,%eax
  402a2f:	85 c0                	test   %eax,%eax
  402a31:	0f 84 c0 fc ff ff    	je     4026f7 <submitr+0x333>
  402a37:	b9 03 00 00 00       	mov    $0x3,%ecx
  402a3c:	48 8d 3d 93 0b 00 00 	lea    0xb93(%rip),%rdi        # 4035d6 <trans_char+0xc6>
  402a43:	48 89 ee             	mov    %rbp,%rsi
  402a46:	f3 a6                	repz cmpsb %es:(%rdi),%ds:(%rsi)
  402a48:	0f 97 c0             	seta   %al
  402a4b:	1c 00                	sbb    $0x0,%al
  402a4d:	0f be c0             	movsbl %al,%eax
  402a50:	85 c0                	test   %eax,%eax
  402a52:	0f 84 9f fc ff ff    	je     4026f7 <submitr+0x333>
  402a58:	b8 ff ff ff ff       	mov    $0xffffffff,%eax
  402a5d:	e9 95 fc ff ff       	jmpq   4026f7 <submitr+0x333>
  402a62:	48 b8 45 72 72 6f 72 	movabs $0x43203a726f727245,%rax
  402a69:	3a 20 43 
  402a6c:	48 ba 6c 69 65 6e 74 	movabs $0x6e7520746e65696c,%rdx
  402a73:	20 75 6e 
  402a76:	48 89 45 00          	mov    %rax,0x0(%rbp)
  402a7a:	48 89 55 08          	mov    %rdx,0x8(%rbp)
  402a7e:	48 b8 61 62 6c 65 20 	movabs $0x206f7420656c6261,%rax
  402a85:	74 6f 20 
  402a88:	48 ba 72 65 61 64 20 	movabs $0x6174732064616572,%rdx
  402a8f:	73 74 61 
  402a92:	48 89 45 10          	mov    %rax,0x10(%rbp)
  402a96:	48 89 55 18          	mov    %rdx,0x18(%rbp)
  402a9a:	48 b8 74 75 73 20 6d 	movabs $0x7373656d20737574,%rax
  402aa1:	65 73 73 
  402aa4:	48 ba 61 67 65 20 66 	movabs $0x6d6f726620656761,%rdx
  402aab:	72 6f 6d 
  402aae:	48 89 45 20          	mov    %rax,0x20(%rbp)
  402ab2:	48 89 55 28          	mov    %rdx,0x28(%rbp)
  402ab6:	48 b8 20 72 65 73 75 	movabs $0x20746c7573657220,%rax
  402abd:	6c 74 20 
  402ac0:	48 89 45 30          	mov    %rax,0x30(%rbp)
  402ac4:	c7 45 38 73 65 72 76 	movl   $0x76726573,0x38(%rbp)
  402acb:	66 c7 45 3c 65 72    	movw   $0x7265,0x3c(%rbp)
  402ad1:	c6 45 3e 00          	movb   $0x0,0x3e(%rbp)
  402ad5:	89 df                	mov    %ebx,%edi
  402ad7:	e8 e4 e1 ff ff       	callq  400cc0 <close@plt>
  402adc:	b8 ff ff ff ff       	mov    $0xffffffff,%eax
  402ae1:	e9 11 fc ff ff       	jmpq   4026f7 <submitr+0x333>
  402ae6:	4c 8d 8c 24 40 80 00 	lea    0x8040(%rsp),%r9
  402aed:	00 
  402aee:	45 89 e0             	mov    %r12d,%r8d
  402af1:	48 8d 0d 90 0a 00 00 	lea    0xa90(%rip),%rcx        # 403588 <trans_char+0x78>
  402af8:	48 c7 c2 ff ff ff ff 	mov    $0xffffffffffffffff,%rdx
  402aff:	be 01 00 00 00       	mov    $0x1,%esi
  402b04:	48 89 ef             	mov    %rbp,%rdi
  402b07:	b8 00 00 00 00       	mov    $0x0,%eax
  402b0c:	e8 ef e2 ff ff       	callq  400e00 <__sprintf_chk@plt>
  402b11:	89 df                	mov    %ebx,%edi
  402b13:	e8 a8 e1 ff ff       	callq  400cc0 <close@plt>
  402b18:	b8 ff ff ff ff       	mov    $0xffffffff,%eax
  402b1d:	e9 d5 fb ff ff       	jmpq   4026f7 <submitr+0x333>
  402b22:	e8 59 e1 ff ff       	callq  400c80 <__stack_chk_fail@plt>

0000000000402b27 <init_timeout>:
  402b27:	85 ff                	test   %edi,%edi
  402b29:	74 28                	je     402b53 <init_timeout+0x2c>
  402b2b:	53                   	push   %rbx
  402b2c:	89 fb                	mov    %edi,%ebx
  402b2e:	85 ff                	test   %edi,%edi
  402b30:	78 1a                	js     402b4c <init_timeout+0x25>
  402b32:	48 8d 35 bb f5 ff ff 	lea    -0xa45(%rip),%rsi        # 4020f4 <sigalrm_handler>
  402b39:	bf 0e 00 00 00       	mov    $0xe,%edi
  402b3e:	e8 9d e1 ff ff       	callq  400ce0 <signal@plt>
  402b43:	89 df                	mov    %ebx,%edi
  402b45:	e8 66 e1 ff ff       	callq  400cb0 <alarm@plt>
  402b4a:	5b                   	pop    %rbx
  402b4b:	c3                   	retq   
  402b4c:	bb 00 00 00 00       	mov    $0x0,%ebx
  402b51:	eb df                	jmp    402b32 <init_timeout+0xb>
  402b53:	f3 c3                	repz retq 

0000000000402b55 <init_driver>:
  402b55:	41 54                	push   %r12
  402b57:	55                   	push   %rbp
  402b58:	53                   	push   %rbx
  402b59:	48 83 ec 20          	sub    $0x20,%rsp
  402b5d:	49 89 fc             	mov    %rdi,%r12
  402b60:	64 48 8b 04 25 28 00 	mov    %fs:0x28,%rax
  402b67:	00 00 
  402b69:	48 89 44 24 18       	mov    %rax,0x18(%rsp)
  402b6e:	31 c0                	xor    %eax,%eax
  402b70:	be 01 00 00 00       	mov    $0x1,%esi
  402b75:	bf 0d 00 00 00       	mov    $0xd,%edi
  402b7a:	e8 61 e1 ff ff       	callq  400ce0 <signal@plt>
  402b7f:	be 01 00 00 00       	mov    $0x1,%esi
  402b84:	bf 1d 00 00 00       	mov    $0x1d,%edi
  402b89:	e8 52 e1 ff ff       	callq  400ce0 <signal@plt>
  402b8e:	be 01 00 00 00       	mov    $0x1,%esi
  402b93:	bf 1d 00 00 00       	mov    $0x1d,%edi
  402b98:	e8 43 e1 ff ff       	callq  400ce0 <signal@plt>
  402b9d:	ba 00 00 00 00       	mov    $0x0,%edx
  402ba2:	be 01 00 00 00       	mov    $0x1,%esi
  402ba7:	bf 02 00 00 00       	mov    $0x2,%edi
  402bac:	e8 5f e2 ff ff       	callq  400e10 <socket@plt>
  402bb1:	85 c0                	test   %eax,%eax
  402bb3:	0f 88 a3 00 00 00    	js     402c5c <init_driver+0x107>
  402bb9:	89 c3                	mov    %eax,%ebx
  402bbb:	48 8d 3d 17 0a 00 00 	lea    0xa17(%rip),%rdi        # 4035d9 <trans_char+0xc9>
  402bc2:	e8 29 e1 ff ff       	callq  400cf0 <gethostbyname@plt>
  402bc7:	48 85 c0             	test   %rax,%rax
  402bca:	0f 84 df 00 00 00    	je     402caf <init_driver+0x15a>
  402bd0:	48 89 e5             	mov    %rsp,%rbp
  402bd3:	48 c7 44 24 02 00 00 	movq   $0x0,0x2(%rsp)
  402bda:	00 00 
  402bdc:	c7 45 0a 00 00 00 00 	movl   $0x0,0xa(%rbp)
  402be3:	66 c7 45 0e 00 00    	movw   $0x0,0xe(%rbp)
  402be9:	66 c7 04 24 02 00    	movw   $0x2,(%rsp)
  402bef:	48 63 50 14          	movslq 0x14(%rax),%rdx
  402bf3:	48 8b 40 18          	mov    0x18(%rax),%rax
  402bf7:	48 8b 30             	mov    (%rax),%rsi
  402bfa:	48 8d 7d 04          	lea    0x4(%rbp),%rdi
  402bfe:	b9 0c 00 00 00       	mov    $0xc,%ecx
  402c03:	e8 f8 e0 ff ff       	callq  400d00 <__memmove_chk@plt>
  402c08:	66 c7 44 24 02 c7 3d 	movw   $0x3dc7,0x2(%rsp)
  402c0f:	ba 10 00 00 00       	mov    $0x10,%edx
  402c14:	48 89 ee             	mov    %rbp,%rsi
  402c17:	89 df                	mov    %ebx,%edi
  402c19:	e8 c2 e1 ff ff       	callq  400de0 <connect@plt>
  402c1e:	85 c0                	test   %eax,%eax
  402c20:	0f 88 fb 00 00 00    	js     402d21 <init_driver+0x1cc>
  402c26:	89 df                	mov    %ebx,%edi
  402c28:	e8 93 e0 ff ff       	callq  400cc0 <close@plt>
  402c2d:	66 41 c7 04 24 4f 4b 	movw   $0x4b4f,(%r12)
  402c34:	41 c6 44 24 02 00    	movb   $0x0,0x2(%r12)
  402c3a:	b8 00 00 00 00       	mov    $0x0,%eax
  402c3f:	48 8b 4c 24 18       	mov    0x18(%rsp),%rcx
  402c44:	64 48 33 0c 25 28 00 	xor    %fs:0x28,%rcx
  402c4b:	00 00 
  402c4d:	0f 85 28 01 00 00    	jne    402d7b <init_driver+0x226>
  402c53:	48 83 c4 20          	add    $0x20,%rsp
  402c57:	5b                   	pop    %rbx
  402c58:	5d                   	pop    %rbp
  402c59:	41 5c                	pop    %r12
  402c5b:	c3                   	retq   
  402c5c:	48 b8 45 72 72 6f 72 	movabs $0x43203a726f727245,%rax
  402c63:	3a 20 43 
  402c66:	48 ba 6c 69 65 6e 74 	movabs $0x6e7520746e65696c,%rdx
  402c6d:	20 75 6e 
  402c70:	49 89 04 24          	mov    %rax,(%r12)
  402c74:	49 89 54 24 08       	mov    %rdx,0x8(%r12)
  402c79:	48 b8 61 62 6c 65 20 	movabs $0x206f7420656c6261,%rax
  402c80:	74 6f 20 
  402c83:	48 ba 63 72 65 61 74 	movabs $0x7320657461657263,%rdx
  402c8a:	65 20 73 
  402c8d:	49 89 44 24 10       	mov    %rax,0x10(%r12)
  402c92:	49 89 54 24 18       	mov    %rdx,0x18(%r12)
  402c97:	41 c7 44 24 20 6f 63 	movl   $0x656b636f,0x20(%r12)
  402c9e:	6b 65 
  402ca0:	66 41 c7 44 24 24 74 	movw   $0x74,0x24(%r12)
  402ca7:	00 
  402ca8:	b8 ff ff ff ff       	mov    $0xffffffff,%eax
  402cad:	eb 90                	jmp    402c3f <init_driver+0xea>
  402caf:	48 b8 45 72 72 6f 72 	movabs $0x44203a726f727245,%rax
  402cb6:	3a 20 44 
  402cb9:	48 ba 4e 53 20 69 73 	movabs $0x6e7520736920534e,%rdx
  402cc0:	20 75 6e 
  402cc3:	49 89 04 24          	mov    %rax,(%r12)
  402cc7:	49 89 54 24 08       	mov    %rdx,0x8(%r12)
  402ccc:	48 b8 61 62 6c 65 20 	movabs $0x206f7420656c6261,%rax
  402cd3:	74 6f 20 
  402cd6:	48 ba 72 65 73 6f 6c 	movabs $0x2065766c6f736572,%rdx
  402cdd:	76 65 20 
  402ce0:	49 89 44 24 10       	mov    %rax,0x10(%r12)
  402ce5:	49 89 54 24 18       	mov    %rdx,0x18(%r12)
  402cea:	48 b8 73 65 72 76 65 	movabs $0x6120726576726573,%rax
  402cf1:	72 20 61 
  402cf4:	49 89 44 24 20       	mov    %rax,0x20(%r12)
  402cf9:	41 c7 44 24 28 64 64 	movl   $0x65726464,0x28(%r12)
  402d00:	72 65 
  402d02:	66 41 c7 44 24 2c 73 	movw   $0x7373,0x2c(%r12)
  402d09:	73 
  402d0a:	41 c6 44 24 2e 00    	movb   $0x0,0x2e(%r12)
  402d10:	89 df                	mov    %ebx,%edi
  402d12:	e8 a9 df ff ff       	callq  400cc0 <close@plt>
  402d17:	b8 ff ff ff ff       	mov    $0xffffffff,%eax
  402d1c:	e9 1e ff ff ff       	jmpq   402c3f <init_driver+0xea>
  402d21:	48 b8 45 72 72 6f 72 	movabs $0x55203a726f727245,%rax
  402d28:	3a 20 55 
  402d2b:	48 ba 6e 61 62 6c 65 	movabs $0x6f7420656c62616e,%rdx
  402d32:	20 74 6f 
  402d35:	49 89 04 24          	mov    %rax,(%r12)
  402d39:	49 89 54 24 08       	mov    %rdx,0x8(%r12)
  402d3e:	48 b8 20 63 6f 6e 6e 	movabs $0x7463656e6e6f6320,%rax
  402d45:	65 63 74 
  402d48:	48 ba 20 74 6f 20 73 	movabs $0x76726573206f7420,%rdx
  402d4f:	65 72 76 
  402d52:	49 89 44 24 10       	mov    %rax,0x10(%r12)
  402d57:	49 89 54 24 18       	mov    %rdx,0x18(%r12)
  402d5c:	66 41 c7 44 24 20 65 	movw   $0x7265,0x20(%r12)
  402d63:	72 
  402d64:	41 c6 44 24 22 00    	movb   $0x0,0x22(%r12)
  402d6a:	89 df                	mov    %ebx,%edi
  402d6c:	e8 4f df ff ff       	callq  400cc0 <close@plt>
  402d71:	b8 ff ff ff ff       	mov    $0xffffffff,%eax
  402d76:	e9 c4 fe ff ff       	jmpq   402c3f <init_driver+0xea>
  402d7b:	e8 00 df ff ff       	callq  400c80 <__stack_chk_fail@plt>

0000000000402d80 <driver_post>:
  402d80:	53                   	push   %rbx
  402d81:	4c 89 cb             	mov    %r9,%rbx
  402d84:	45 85 c0             	test   %r8d,%r8d
  402d87:	75 18                	jne    402da1 <driver_post+0x21>
  402d89:	48 85 ff             	test   %rdi,%rdi
  402d8c:	74 05                	je     402d93 <driver_post+0x13>
  402d8e:	80 3f 00             	cmpb   $0x0,(%rdi)
  402d91:	75 37                	jne    402dca <driver_post+0x4a>
  402d93:	66 c7 03 4f 4b       	movw   $0x4b4f,(%rbx)
  402d98:	c6 43 02 00          	movb   $0x0,0x2(%rbx)
  402d9c:	44 89 c0             	mov    %r8d,%eax
  402d9f:	5b                   	pop    %rbx
  402da0:	c3                   	retq   
  402da1:	48 89 ca             	mov    %rcx,%rdx
  402da4:	48 8d 35 3e 08 00 00 	lea    0x83e(%rip),%rsi        # 4035e9 <trans_char+0xd9>
  402dab:	bf 01 00 00 00       	mov    $0x1,%edi
  402db0:	b8 00 00 00 00       	mov    $0x0,%eax
  402db5:	e8 d6 df ff ff       	callq  400d90 <__printf_chk@plt>
  402dba:	66 c7 03 4f 4b       	movw   $0x4b4f,(%rbx)
  402dbf:	c6 43 02 00          	movb   $0x0,0x2(%rbx)
  402dc3:	b8 00 00 00 00       	mov    $0x0,%eax
  402dc8:	eb d5                	jmp    402d9f <driver_post+0x1f>
  402dca:	48 83 ec 08          	sub    $0x8,%rsp
  402dce:	41 51                	push   %r9
  402dd0:	49 89 c9             	mov    %rcx,%r9
  402dd3:	49 89 d0             	mov    %rdx,%r8
  402dd6:	48 89 f9             	mov    %rdi,%rcx
  402dd9:	48 89 f2             	mov    %rsi,%rdx
  402ddc:	be 3d c7 00 00       	mov    $0xc73d,%esi
  402de1:	48 8d 3d f1 07 00 00 	lea    0x7f1(%rip),%rdi        # 4035d9 <trans_char+0xc9>
  402de8:	e8 d7 f5 ff ff       	callq  4023c4 <submitr>
  402ded:	48 83 c4 10          	add    $0x10,%rsp
  402df1:	eb ac                	jmp    402d9f <driver_post+0x1f>

0000000000402df3 <check>:
  402df3:	89 f8                	mov    %edi,%eax
  402df5:	c1 e8 1c             	shr    $0x1c,%eax
  402df8:	85 c0                	test   %eax,%eax
  402dfa:	74 1d                	je     402e19 <check+0x26>
  402dfc:	b9 00 00 00 00       	mov    $0x0,%ecx
  402e01:	83 f9 1f             	cmp    $0x1f,%ecx
  402e04:	7f 0d                	jg     402e13 <check+0x20>
  402e06:	89 f8                	mov    %edi,%eax
  402e08:	d3 e8                	shr    %cl,%eax
  402e0a:	3c 0a                	cmp    $0xa,%al
  402e0c:	74 11                	je     402e1f <check+0x2c>
  402e0e:	83 c1 08             	add    $0x8,%ecx
  402e11:	eb ee                	jmp    402e01 <check+0xe>
  402e13:	b8 01 00 00 00       	mov    $0x1,%eax
  402e18:	c3                   	retq   
  402e19:	b8 00 00 00 00       	mov    $0x0,%eax
  402e1e:	c3                   	retq   
  402e1f:	b8 00 00 00 00       	mov    $0x0,%eax
  402e24:	c3                   	retq   

0000000000402e25 <gencookie>:
  402e25:	53                   	push   %rbx
  402e26:	83 c7 01             	add    $0x1,%edi
  402e29:	e8 02 de ff ff       	callq  400c30 <srandom@plt>
  402e2e:	e8 2d df ff ff       	callq  400d60 <random@plt>
  402e33:	89 c3                	mov    %eax,%ebx
  402e35:	89 c7                	mov    %eax,%edi
  402e37:	e8 b7 ff ff ff       	callq  402df3 <check>
  402e3c:	85 c0                	test   %eax,%eax
  402e3e:	74 ee                	je     402e2e <gencookie+0x9>
  402e40:	89 d8                	mov    %ebx,%eax
  402e42:	5b                   	pop    %rbx
  402e43:	c3                   	retq   
  402e44:	66 2e 0f 1f 84 00 00 	nopw   %cs:0x0(%rax,%rax,1)
  402e4b:	00 00 00 
  402e4e:	66 90                	xchg   %ax,%ax

0000000000402e50 <__libc_csu_init>:
  402e50:	41 57                	push   %r15
  402e52:	41 56                	push   %r14
  402e54:	49 89 d7             	mov    %rdx,%r15
  402e57:	41 55                	push   %r13
  402e59:	41 54                	push   %r12
  402e5b:	4c 8d 25 ae 0f 20 00 	lea    0x200fae(%rip),%r12        # 603e10 <__frame_dummy_init_array_entry>
  402e62:	55                   	push   %rbp
  402e63:	48 8d 2d ae 0f 20 00 	lea    0x200fae(%rip),%rbp        # 603e18 <__init_array_end>
  402e6a:	53                   	push   %rbx
  402e6b:	41 89 fd             	mov    %edi,%r13d
  402e6e:	49 89 f6             	mov    %rsi,%r14
  402e71:	4c 29 e5             	sub    %r12,%rbp
  402e74:	48 83 ec 08          	sub    $0x8,%rsp
  402e78:	48 c1 fd 03          	sar    $0x3,%rbp
  402e7c:	e8 6f dd ff ff       	callq  400bf0 <_init>
  402e81:	48 85 ed             	test   %rbp,%rbp
  402e84:	74 20                	je     402ea6 <__libc_csu_init+0x56>
  402e86:	31 db                	xor    %ebx,%ebx
  402e88:	0f 1f 84 00 00 00 00 	nopl   0x0(%rax,%rax,1)
  402e8f:	00 
  402e90:	4c 89 fa             	mov    %r15,%rdx
  402e93:	4c 89 f6             	mov    %r14,%rsi
  402e96:	44 89 ef             	mov    %r13d,%edi
  402e99:	41 ff 14 dc          	callq  *(%r12,%rbx,8)
  402e9d:	48 83 c3 01          	add    $0x1,%rbx
  402ea1:	48 39 dd             	cmp    %rbx,%rbp
  402ea4:	75 ea                	jne    402e90 <__libc_csu_init+0x40>
  402ea6:	48 83 c4 08          	add    $0x8,%rsp
  402eaa:	5b                   	pop    %rbx
  402eab:	5d                   	pop    %rbp
  402eac:	41 5c                	pop    %r12
  402eae:	41 5d                	pop    %r13
  402eb0:	41 5e                	pop    %r14
  402eb2:	41 5f                	pop    %r15
  402eb4:	c3                   	retq   
  402eb5:	90                   	nop
  402eb6:	66 2e 0f 1f 84 00 00 	nopw   %cs:0x0(%rax,%rax,1)
  402ebd:	00 00 00 

0000000000402ec0 <__libc_csu_fini>:
  402ec0:	f3 c3                	repz retq 

Disassembly of section .fini:

0000000000402ec4 <_fini>:
  402ec4:	48 83 ec 08          	sub    $0x8,%rsp
  402ec8:	48 83 c4 08          	add    $0x8,%rsp
  402ecc:	c3                   	retq   
