
rtarget:     file format elf64-x86-64


Disassembly of section .init:

0000000000400bf0 <_init>:
  400bf0:	48 83 ec 08          	sub    $0x8,%rsp
  400bf4:	48 8b 05 fd 43 20 00 	mov    0x2043fd(%rip),%rax        # 604ff8 <__gmon_start__>
  400bfb:	48 85 c0             	test   %rax,%rax
  400bfe:	74 02                	je     400c02 <_init+0x12>
  400c00:	ff d0                	callq  *%rax
  400c02:	48 83 c4 08          	add    $0x8,%rsp
  400c06:	c3                   	retq   

Disassembly of section .plt:

0000000000400c10 <.plt>:
  400c10:	ff 35 f2 43 20 00    	pushq  0x2043f2(%rip)        # 605008 <_GLOBAL_OFFSET_TABLE_+0x8>
  400c16:	ff 25 f4 43 20 00    	jmpq   *0x2043f4(%rip)        # 605010 <_GLOBAL_OFFSET_TABLE_+0x10>
  400c1c:	0f 1f 40 00          	nopl   0x0(%rax)

0000000000400c20 <__errno_location@plt>:
  400c20:	ff 25 f2 43 20 00    	jmpq   *0x2043f2(%rip)        # 605018 <__errno_location@GLIBC_2.2.5>
  400c26:	68 00 00 00 00       	pushq  $0x0
  400c2b:	e9 e0 ff ff ff       	jmpq   400c10 <.plt>

0000000000400c30 <srandom@plt>:
  400c30:	ff 25 ea 43 20 00    	jmpq   *0x2043ea(%rip)        # 605020 <srandom@GLIBC_2.2.5>
  400c36:	68 01 00 00 00       	pushq  $0x1
  400c3b:	e9 d0 ff ff ff       	jmpq   400c10 <.plt>

0000000000400c40 <strncmp@plt>:
  400c40:	ff 25 e2 43 20 00    	jmpq   *0x2043e2(%rip)        # 605028 <strncmp@GLIBC_2.2.5>
  400c46:	68 02 00 00 00       	pushq  $0x2
  400c4b:	e9 c0 ff ff ff       	jmpq   400c10 <.plt>

0000000000400c50 <strcpy@plt>:
  400c50:	ff 25 da 43 20 00    	jmpq   *0x2043da(%rip)        # 605030 <strcpy@GLIBC_2.2.5>
  400c56:	68 03 00 00 00       	pushq  $0x3
  400c5b:	e9 b0 ff ff ff       	jmpq   400c10 <.plt>

0000000000400c60 <puts@plt>:
  400c60:	ff 25 d2 43 20 00    	jmpq   *0x2043d2(%rip)        # 605038 <puts@GLIBC_2.2.5>
  400c66:	68 04 00 00 00       	pushq  $0x4
  400c6b:	e9 a0 ff ff ff       	jmpq   400c10 <.plt>

0000000000400c70 <write@plt>:
  400c70:	ff 25 ca 43 20 00    	jmpq   *0x2043ca(%rip)        # 605040 <write@GLIBC_2.2.5>
  400c76:	68 05 00 00 00       	pushq  $0x5
  400c7b:	e9 90 ff ff ff       	jmpq   400c10 <.plt>

0000000000400c80 <__stack_chk_fail@plt>:
  400c80:	ff 25 c2 43 20 00    	jmpq   *0x2043c2(%rip)        # 605048 <__stack_chk_fail@GLIBC_2.4>
  400c86:	68 06 00 00 00       	pushq  $0x6
  400c8b:	e9 80 ff ff ff       	jmpq   400c10 <.plt>

0000000000400c90 <mmap@plt>:
  400c90:	ff 25 ba 43 20 00    	jmpq   *0x2043ba(%rip)        # 605050 <mmap@GLIBC_2.2.5>
  400c96:	68 07 00 00 00       	pushq  $0x7
  400c9b:	e9 70 ff ff ff       	jmpq   400c10 <.plt>

0000000000400ca0 <memset@plt>:
  400ca0:	ff 25 b2 43 20 00    	jmpq   *0x2043b2(%rip)        # 605058 <memset@GLIBC_2.2.5>
  400ca6:	68 08 00 00 00       	pushq  $0x8
  400cab:	e9 60 ff ff ff       	jmpq   400c10 <.plt>

0000000000400cb0 <alarm@plt>:
  400cb0:	ff 25 aa 43 20 00    	jmpq   *0x2043aa(%rip)        # 605060 <alarm@GLIBC_2.2.5>
  400cb6:	68 09 00 00 00       	pushq  $0x9
  400cbb:	e9 50 ff ff ff       	jmpq   400c10 <.plt>

0000000000400cc0 <close@plt>:
  400cc0:	ff 25 a2 43 20 00    	jmpq   *0x2043a2(%rip)        # 605068 <close@GLIBC_2.2.5>
  400cc6:	68 0a 00 00 00       	pushq  $0xa
  400ccb:	e9 40 ff ff ff       	jmpq   400c10 <.plt>

0000000000400cd0 <read@plt>:
  400cd0:	ff 25 9a 43 20 00    	jmpq   *0x20439a(%rip)        # 605070 <read@GLIBC_2.2.5>
  400cd6:	68 0b 00 00 00       	pushq  $0xb
  400cdb:	e9 30 ff ff ff       	jmpq   400c10 <.plt>

0000000000400ce0 <signal@plt>:
  400ce0:	ff 25 92 43 20 00    	jmpq   *0x204392(%rip)        # 605078 <signal@GLIBC_2.2.5>
  400ce6:	68 0c 00 00 00       	pushq  $0xc
  400ceb:	e9 20 ff ff ff       	jmpq   400c10 <.plt>

0000000000400cf0 <gethostbyname@plt>:
  400cf0:	ff 25 8a 43 20 00    	jmpq   *0x20438a(%rip)        # 605080 <gethostbyname@GLIBC_2.2.5>
  400cf6:	68 0d 00 00 00       	pushq  $0xd
  400cfb:	e9 10 ff ff ff       	jmpq   400c10 <.plt>

0000000000400d00 <__memmove_chk@plt>:
  400d00:	ff 25 82 43 20 00    	jmpq   *0x204382(%rip)        # 605088 <__memmove_chk@GLIBC_2.3.4>
  400d06:	68 0e 00 00 00       	pushq  $0xe
  400d0b:	e9 00 ff ff ff       	jmpq   400c10 <.plt>

0000000000400d10 <__memcpy_chk@plt>:
  400d10:	ff 25 7a 43 20 00    	jmpq   *0x20437a(%rip)        # 605090 <__memcpy_chk@GLIBC_2.3.4>
  400d16:	68 0f 00 00 00       	pushq  $0xf
  400d1b:	e9 f0 fe ff ff       	jmpq   400c10 <.plt>

0000000000400d20 <strtol@plt>:
  400d20:	ff 25 72 43 20 00    	jmpq   *0x204372(%rip)        # 605098 <strtol@GLIBC_2.2.5>
  400d26:	68 10 00 00 00       	pushq  $0x10
  400d2b:	e9 e0 fe ff ff       	jmpq   400c10 <.plt>

0000000000400d30 <memcpy@plt>:
  400d30:	ff 25 6a 43 20 00    	jmpq   *0x20436a(%rip)        # 6050a0 <memcpy@GLIBC_2.14>
  400d36:	68 11 00 00 00       	pushq  $0x11
  400d3b:	e9 d0 fe ff ff       	jmpq   400c10 <.plt>

0000000000400d40 <time@plt>:
  400d40:	ff 25 62 43 20 00    	jmpq   *0x204362(%rip)        # 6050a8 <time@GLIBC_2.2.5>
  400d46:	68 12 00 00 00       	pushq  $0x12
  400d4b:	e9 c0 fe ff ff       	jmpq   400c10 <.plt>

0000000000400d50 <inet_aton@plt>:
  400d50:	ff 25 5a 43 20 00    	jmpq   *0x20435a(%rip)        # 6050b0 <inet_aton@GLIBC_2.2.5>
  400d56:	68 13 00 00 00       	pushq  $0x13
  400d5b:	e9 b0 fe ff ff       	jmpq   400c10 <.plt>

0000000000400d60 <random@plt>:
  400d60:	ff 25 52 43 20 00    	jmpq   *0x204352(%rip)        # 6050b8 <random@GLIBC_2.2.5>
  400d66:	68 14 00 00 00       	pushq  $0x14
  400d6b:	e9 a0 fe ff ff       	jmpq   400c10 <.plt>

0000000000400d70 <_IO_getc@plt>:
  400d70:	ff 25 4a 43 20 00    	jmpq   *0x20434a(%rip)        # 6050c0 <_IO_getc@GLIBC_2.2.5>
  400d76:	68 15 00 00 00       	pushq  $0x15
  400d7b:	e9 90 fe ff ff       	jmpq   400c10 <.plt>

0000000000400d80 <munmap@plt>:
  400d80:	ff 25 42 43 20 00    	jmpq   *0x204342(%rip)        # 6050c8 <munmap@GLIBC_2.2.5>
  400d86:	68 16 00 00 00       	pushq  $0x16
  400d8b:	e9 80 fe ff ff       	jmpq   400c10 <.plt>

0000000000400d90 <__printf_chk@plt>:
  400d90:	ff 25 3a 43 20 00    	jmpq   *0x20433a(%rip)        # 6050d0 <__printf_chk@GLIBC_2.3.4>
  400d96:	68 17 00 00 00       	pushq  $0x17
  400d9b:	e9 70 fe ff ff       	jmpq   400c10 <.plt>

0000000000400da0 <fopen@plt>:
  400da0:	ff 25 32 43 20 00    	jmpq   *0x204332(%rip)        # 6050d8 <fopen@GLIBC_2.2.5>
  400da6:	68 18 00 00 00       	pushq  $0x18
  400dab:	e9 60 fe ff ff       	jmpq   400c10 <.plt>

0000000000400db0 <getopt@plt>:
  400db0:	ff 25 2a 43 20 00    	jmpq   *0x20432a(%rip)        # 6050e0 <getopt@GLIBC_2.2.5>
  400db6:	68 19 00 00 00       	pushq  $0x19
  400dbb:	e9 50 fe ff ff       	jmpq   400c10 <.plt>

0000000000400dc0 <strtoul@plt>:
  400dc0:	ff 25 22 43 20 00    	jmpq   *0x204322(%rip)        # 6050e8 <strtoul@GLIBC_2.2.5>
  400dc6:	68 1a 00 00 00       	pushq  $0x1a
  400dcb:	e9 40 fe ff ff       	jmpq   400c10 <.plt>

0000000000400dd0 <exit@plt>:
  400dd0:	ff 25 1a 43 20 00    	jmpq   *0x20431a(%rip)        # 6050f0 <exit@GLIBC_2.2.5>
  400dd6:	68 1b 00 00 00       	pushq  $0x1b
  400ddb:	e9 30 fe ff ff       	jmpq   400c10 <.plt>

0000000000400de0 <connect@plt>:
  400de0:	ff 25 12 43 20 00    	jmpq   *0x204312(%rip)        # 6050f8 <connect@GLIBC_2.2.5>
  400de6:	68 1c 00 00 00       	pushq  $0x1c
  400deb:	e9 20 fe ff ff       	jmpq   400c10 <.plt>

0000000000400df0 <__fprintf_chk@plt>:
  400df0:	ff 25 0a 43 20 00    	jmpq   *0x20430a(%rip)        # 605100 <__fprintf_chk@GLIBC_2.3.4>
  400df6:	68 1d 00 00 00       	pushq  $0x1d
  400dfb:	e9 10 fe ff ff       	jmpq   400c10 <.plt>

0000000000400e00 <__sprintf_chk@plt>:
  400e00:	ff 25 02 43 20 00    	jmpq   *0x204302(%rip)        # 605108 <__sprintf_chk@GLIBC_2.3.4>
  400e06:	68 1e 00 00 00       	pushq  $0x1e
  400e0b:	e9 00 fe ff ff       	jmpq   400c10 <.plt>

0000000000400e10 <socket@plt>:
  400e10:	ff 25 fa 42 20 00    	jmpq   *0x2042fa(%rip)        # 605110 <socket@GLIBC_2.2.5>
  400e16:	68 1f 00 00 00       	pushq  $0x1f
  400e1b:	e9 f0 fd ff ff       	jmpq   400c10 <.plt>

Disassembly of section .text:

0000000000400e20 <_start>:
  400e20:	31 ed                	xor    %ebp,%ebp
  400e22:	49 89 d1             	mov    %rdx,%r9
  400e25:	5e                   	pop    %rsi
  400e26:	48 89 e2             	mov    %rsp,%rdx
  400e29:	48 83 e4 f0          	and    $0xfffffffffffffff0,%rsp
  400e2d:	50                   	push   %rax
  400e2e:	54                   	push   %rsp
  400e2f:	49 c7 c0 e0 2f 40 00 	mov    $0x402fe0,%r8
  400e36:	48 c7 c1 70 2f 40 00 	mov    $0x402f70,%rcx
  400e3d:	48 c7 c7 a1 10 40 00 	mov    $0x4010a1,%rdi
  400e44:	ff 15 a6 41 20 00    	callq  *0x2041a6(%rip)        # 604ff0 <__libc_start_main@GLIBC_2.2.5>
  400e4a:	f4                   	hlt    
  400e4b:	0f 1f 44 00 00       	nopl   0x0(%rax,%rax,1)

0000000000400e50 <_dl_relocate_static_pie>:
  400e50:	f3 c3                	repz retq 
  400e52:	66 2e 0f 1f 84 00 00 	nopw   %cs:0x0(%rax,%rax,1)
  400e59:	00 00 00 
  400e5c:	0f 1f 40 00          	nopl   0x0(%rax)

0000000000400e60 <deregister_tm_clones>:
  400e60:	55                   	push   %rbp
  400e61:	b8 58 51 60 00       	mov    $0x605158,%eax
  400e66:	48 3d 58 51 60 00    	cmp    $0x605158,%rax
  400e6c:	48 89 e5             	mov    %rsp,%rbp
  400e6f:	74 17                	je     400e88 <deregister_tm_clones+0x28>
  400e71:	b8 00 00 00 00       	mov    $0x0,%eax
  400e76:	48 85 c0             	test   %rax,%rax
  400e79:	74 0d                	je     400e88 <deregister_tm_clones+0x28>
  400e7b:	5d                   	pop    %rbp
  400e7c:	bf 58 51 60 00       	mov    $0x605158,%edi
  400e81:	ff e0                	jmpq   *%rax
  400e83:	0f 1f 44 00 00       	nopl   0x0(%rax,%rax,1)
  400e88:	5d                   	pop    %rbp
  400e89:	c3                   	retq   
  400e8a:	66 0f 1f 44 00 00    	nopw   0x0(%rax,%rax,1)

0000000000400e90 <register_tm_clones>:
  400e90:	be 58 51 60 00       	mov    $0x605158,%esi
  400e95:	55                   	push   %rbp
  400e96:	48 81 ee 58 51 60 00 	sub    $0x605158,%rsi
  400e9d:	48 89 e5             	mov    %rsp,%rbp
  400ea0:	48 c1 fe 03          	sar    $0x3,%rsi
  400ea4:	48 89 f0             	mov    %rsi,%rax
  400ea7:	48 c1 e8 3f          	shr    $0x3f,%rax
  400eab:	48 01 c6             	add    %rax,%rsi
  400eae:	48 d1 fe             	sar    %rsi
  400eb1:	74 15                	je     400ec8 <register_tm_clones+0x38>
  400eb3:	b8 00 00 00 00       	mov    $0x0,%eax
  400eb8:	48 85 c0             	test   %rax,%rax
  400ebb:	74 0b                	je     400ec8 <register_tm_clones+0x38>
  400ebd:	5d                   	pop    %rbp
  400ebe:	bf 58 51 60 00       	mov    $0x605158,%edi
  400ec3:	ff e0                	jmpq   *%rax
  400ec5:	0f 1f 00             	nopl   (%rax)
  400ec8:	5d                   	pop    %rbp
  400ec9:	c3                   	retq   
  400eca:	66 0f 1f 44 00 00    	nopw   0x0(%rax,%rax,1)

0000000000400ed0 <__do_global_dtors_aux>:
  400ed0:	80 3d b1 42 20 00 00 	cmpb   $0x0,0x2042b1(%rip)        # 605188 <completed.7697>
  400ed7:	75 17                	jne    400ef0 <__do_global_dtors_aux+0x20>
  400ed9:	55                   	push   %rbp
  400eda:	48 89 e5             	mov    %rsp,%rbp
  400edd:	e8 7e ff ff ff       	callq  400e60 <deregister_tm_clones>
  400ee2:	c6 05 9f 42 20 00 01 	movb   $0x1,0x20429f(%rip)        # 605188 <completed.7697>
  400ee9:	5d                   	pop    %rbp
  400eea:	c3                   	retq   
  400eeb:	0f 1f 44 00 00       	nopl   0x0(%rax,%rax,1)
  400ef0:	f3 c3                	repz retq 
  400ef2:	0f 1f 40 00          	nopl   0x0(%rax)
  400ef6:	66 2e 0f 1f 84 00 00 	nopw   %cs:0x0(%rax,%rax,1)
  400efd:	00 00 00 

0000000000400f00 <frame_dummy>:
  400f00:	55                   	push   %rbp
  400f01:	48 89 e5             	mov    %rsp,%rbp
  400f04:	5d                   	pop    %rbp
  400f05:	eb 89                	jmp    400e90 <register_tm_clones>

0000000000400f07 <usage>:
  400f07:	48 83 ec 08          	sub    $0x8,%rsp
  400f0b:	48 89 fa             	mov    %rdi,%rdx
  400f0e:	83 3d d3 45 20 00 00 	cmpl   $0x0,0x2045d3(%rip)        # 6054e8 <is_checker>
  400f15:	74 50                	je     400f67 <usage+0x60>
  400f17:	48 8d 35 da 20 00 00 	lea    0x20da(%rip),%rsi        # 402ff8 <_IO_stdin_used+0x8>
  400f1e:	bf 01 00 00 00       	mov    $0x1,%edi
  400f23:	b8 00 00 00 00       	mov    $0x0,%eax
  400f28:	e8 63 fe ff ff       	callq  400d90 <__printf_chk@plt>
  400f2d:	48 8d 3d fc 20 00 00 	lea    0x20fc(%rip),%rdi        # 403030 <_IO_stdin_used+0x40>
  400f34:	e8 27 fd ff ff       	callq  400c60 <puts@plt>
  400f39:	48 8d 3d f0 21 00 00 	lea    0x21f0(%rip),%rdi        # 403130 <_IO_stdin_used+0x140>
  400f40:	e8 1b fd ff ff       	callq  400c60 <puts@plt>
  400f45:	48 8d 3d 0c 21 00 00 	lea    0x210c(%rip),%rdi        # 403058 <_IO_stdin_used+0x68>
  400f4c:	e8 0f fd ff ff       	callq  400c60 <puts@plt>
  400f51:	48 8d 3d f2 21 00 00 	lea    0x21f2(%rip),%rdi        # 40314a <_IO_stdin_used+0x15a>
  400f58:	e8 03 fd ff ff       	callq  400c60 <puts@plt>
  400f5d:	bf 00 00 00 00       	mov    $0x0,%edi
  400f62:	e8 69 fe ff ff       	callq  400dd0 <exit@plt>
  400f67:	48 8d 35 f8 21 00 00 	lea    0x21f8(%rip),%rsi        # 403166 <_IO_stdin_used+0x176>
  400f6e:	bf 01 00 00 00       	mov    $0x1,%edi
  400f73:	b8 00 00 00 00       	mov    $0x0,%eax
  400f78:	e8 13 fe ff ff       	callq  400d90 <__printf_chk@plt>
  400f7d:	48 8d 3d fc 20 00 00 	lea    0x20fc(%rip),%rdi        # 403080 <_IO_stdin_used+0x90>
  400f84:	e8 d7 fc ff ff       	callq  400c60 <puts@plt>
  400f89:	48 8d 3d 18 21 00 00 	lea    0x2118(%rip),%rdi        # 4030a8 <_IO_stdin_used+0xb8>
  400f90:	e8 cb fc ff ff       	callq  400c60 <puts@plt>
  400f95:	48 8d 3d e8 21 00 00 	lea    0x21e8(%rip),%rdi        # 403184 <_IO_stdin_used+0x194>
  400f9c:	e8 bf fc ff ff       	callq  400c60 <puts@plt>
  400fa1:	eb ba                	jmp    400f5d <usage+0x56>

0000000000400fa3 <initialize_target>:
  400fa3:	55                   	push   %rbp
  400fa4:	53                   	push   %rbx
  400fa5:	48 81 ec 18 20 00 00 	sub    $0x2018,%rsp
  400fac:	89 f5                	mov    %esi,%ebp
  400fae:	64 48 8b 04 25 28 00 	mov    %fs:0x28,%rax
  400fb5:	00 00 
  400fb7:	48 89 84 24 08 20 00 	mov    %rax,0x2008(%rsp)
  400fbe:	00 
  400fbf:	31 c0                	xor    %eax,%eax
  400fc1:	89 3d 11 45 20 00    	mov    %edi,0x204511(%rip)        # 6054d8 <check_level>
  400fc7:	8b 3d 5b 41 20 00    	mov    0x20415b(%rip),%edi        # 605128 <target_id>
  400fcd:	e8 77 1f 00 00       	callq  402f49 <gencookie>
  400fd2:	89 05 0c 45 20 00    	mov    %eax,0x20450c(%rip)        # 6054e4 <cookie>
  400fd8:	89 c7                	mov    %eax,%edi
  400fda:	e8 6a 1f 00 00       	callq  402f49 <gencookie>
  400fdf:	89 05 fb 44 20 00    	mov    %eax,0x2044fb(%rip)        # 6054e0 <authkey>
  400fe5:	8b 05 3d 41 20 00    	mov    0x20413d(%rip),%eax        # 605128 <target_id>
  400feb:	8d 78 01             	lea    0x1(%rax),%edi
  400fee:	e8 3d fc ff ff       	callq  400c30 <srandom@plt>
  400ff3:	e8 68 fd ff ff       	callq  400d60 <random@plt>
  400ff8:	89 c7                	mov    %eax,%edi
  400ffa:	e8 8d 02 00 00       	callq  40128c <scramble>
  400fff:	89 c3                	mov    %eax,%ebx
  401001:	85 ed                	test   %ebp,%ebp
  401003:	75 50                	jne    401055 <initialize_target+0xb2>
  401005:	b8 00 00 00 00       	mov    $0x0,%eax
  40100a:	01 d8                	add    %ebx,%eax
  40100c:	0f b7 c0             	movzwl %ax,%eax
  40100f:	8d 04 c5 00 01 00 00 	lea    0x100(,%rax,8),%eax
  401016:	89 c0                	mov    %eax,%eax
  401018:	48 89 05 29 41 20 00 	mov    %rax,0x204129(%rip)        # 605148 <buf_offset>
  40101f:	c6 05 e2 50 20 00 72 	movb   $0x72,0x2050e2(%rip)        # 606108 <target_prefix>
  401026:	83 3d 23 41 20 00 00 	cmpl   $0x0,0x204123(%rip)        # 605150 <notify>
  40102d:	74 09                	je     401038 <initialize_target+0x95>
  40102f:	83 3d b2 44 20 00 00 	cmpl   $0x0,0x2044b2(%rip)        # 6054e8 <is_checker>
  401036:	74 35                	je     40106d <initialize_target+0xca>
  401038:	48 8b 84 24 08 20 00 	mov    0x2008(%rsp),%rax
  40103f:	00 
  401040:	64 48 33 04 25 28 00 	xor    %fs:0x28,%rax
  401047:	00 00 
  401049:	75 51                	jne    40109c <initialize_target+0xf9>
  40104b:	48 81 c4 18 20 00 00 	add    $0x2018,%rsp
  401052:	5b                   	pop    %rbx
  401053:	5d                   	pop    %rbp
  401054:	c3                   	retq   
  401055:	bf 00 00 00 00       	mov    $0x0,%edi
  40105a:	e8 e1 fc ff ff       	callq  400d40 <time@plt>
  40105f:	89 c7                	mov    %eax,%edi
  401061:	e8 ca fb ff ff       	callq  400c30 <srandom@plt>
  401066:	e8 f5 fc ff ff       	callq  400d60 <random@plt>
  40106b:	eb 9d                	jmp    40100a <initialize_target+0x67>
  40106d:	48 89 e7             	mov    %rsp,%rdi
  401070:	e8 04 1c 00 00       	callq  402c79 <init_driver>
  401075:	85 c0                	test   %eax,%eax
  401077:	79 bf                	jns    401038 <initialize_target+0x95>
  401079:	48 89 e2             	mov    %rsp,%rdx
  40107c:	48 8d 35 55 20 00 00 	lea    0x2055(%rip),%rsi        # 4030d8 <_IO_stdin_used+0xe8>
  401083:	bf 01 00 00 00       	mov    $0x1,%edi
  401088:	b8 00 00 00 00       	mov    $0x0,%eax
  40108d:	e8 fe fc ff ff       	callq  400d90 <__printf_chk@plt>
  401092:	bf 08 00 00 00       	mov    $0x8,%edi
  401097:	e8 34 fd ff ff       	callq  400dd0 <exit@plt>
  40109c:	e8 df fb ff ff       	callq  400c80 <__stack_chk_fail@plt>

00000000004010a1 <main>:
  4010a1:	41 56                	push   %r14
  4010a3:	41 55                	push   %r13
  4010a5:	41 54                	push   %r12
  4010a7:	55                   	push   %rbp
  4010a8:	53                   	push   %rbx
  4010a9:	41 89 fc             	mov    %edi,%r12d
  4010ac:	48 89 f3             	mov    %rsi,%rbx
  4010af:	48 c7 c6 9e 1f 40 00 	mov    $0x401f9e,%rsi
  4010b6:	bf 0b 00 00 00       	mov    $0xb,%edi
  4010bb:	e8 20 fc ff ff       	callq  400ce0 <signal@plt>
  4010c0:	48 c7 c6 4a 1f 40 00 	mov    $0x401f4a,%rsi
  4010c7:	bf 07 00 00 00       	mov    $0x7,%edi
  4010cc:	e8 0f fc ff ff       	callq  400ce0 <signal@plt>
  4010d1:	48 c7 c6 f2 1f 40 00 	mov    $0x401ff2,%rsi
  4010d8:	bf 04 00 00 00       	mov    $0x4,%edi
  4010dd:	e8 fe fb ff ff       	callq  400ce0 <signal@plt>
  4010e2:	83 3d ff 43 20 00 00 	cmpl   $0x0,0x2043ff(%rip)        # 6054e8 <is_checker>
  4010e9:	75 26                	jne    401111 <main+0x70>
  4010eb:	48 8d 2d ab 20 00 00 	lea    0x20ab(%rip),%rbp        # 40319d <_IO_stdin_used+0x1ad>
  4010f2:	48 8b 05 67 40 20 00 	mov    0x204067(%rip),%rax        # 605160 <stdin@@GLIBC_2.2.5>
  4010f9:	48 89 05 d0 43 20 00 	mov    %rax,0x2043d0(%rip)        # 6054d0 <infile>
  401100:	41 bd 00 00 00 00    	mov    $0x0,%r13d
  401106:	41 be 00 00 00 00    	mov    $0x0,%r14d
  40110c:	e9 8d 00 00 00       	jmpq   40119e <main+0xfd>
  401111:	48 c7 c6 46 20 40 00 	mov    $0x402046,%rsi
  401118:	bf 0e 00 00 00       	mov    $0xe,%edi
  40111d:	e8 be fb ff ff       	callq  400ce0 <signal@plt>
  401122:	bf 05 00 00 00       	mov    $0x5,%edi
  401127:	e8 84 fb ff ff       	callq  400cb0 <alarm@plt>
  40112c:	48 8d 2d 6f 20 00 00 	lea    0x206f(%rip),%rbp        # 4031a2 <_IO_stdin_used+0x1b2>
  401133:	eb bd                	jmp    4010f2 <main+0x51>
  401135:	48 8b 3b             	mov    (%rbx),%rdi
  401138:	e8 ca fd ff ff       	callq  400f07 <usage>
  40113d:	48 8d 35 b1 22 00 00 	lea    0x22b1(%rip),%rsi        # 4033f5 <_IO_stdin_used+0x405>
  401144:	48 8b 3d 1d 40 20 00 	mov    0x20401d(%rip),%rdi        # 605168 <optarg@@GLIBC_2.2.5>
  40114b:	e8 50 fc ff ff       	callq  400da0 <fopen@plt>
  401150:	48 89 05 79 43 20 00 	mov    %rax,0x204379(%rip)        # 6054d0 <infile>
  401157:	48 85 c0             	test   %rax,%rax
  40115a:	75 42                	jne    40119e <main+0xfd>
  40115c:	48 8b 0d 05 40 20 00 	mov    0x204005(%rip),%rcx        # 605168 <optarg@@GLIBC_2.2.5>
  401163:	48 8d 15 40 20 00 00 	lea    0x2040(%rip),%rdx        # 4031aa <_IO_stdin_used+0x1ba>
  40116a:	be 01 00 00 00       	mov    $0x1,%esi
  40116f:	48 8b 3d 0a 40 20 00 	mov    0x20400a(%rip),%rdi        # 605180 <stderr@@GLIBC_2.2.5>
  401176:	e8 75 fc ff ff       	callq  400df0 <__fprintf_chk@plt>
  40117b:	b8 01 00 00 00       	mov    $0x1,%eax
  401180:	e9 d9 00 00 00       	jmpq   40125e <main+0x1bd>
  401185:	ba 10 00 00 00       	mov    $0x10,%edx
  40118a:	be 00 00 00 00       	mov    $0x0,%esi
  40118f:	48 8b 3d d2 3f 20 00 	mov    0x203fd2(%rip),%rdi        # 605168 <optarg@@GLIBC_2.2.5>
  401196:	e8 25 fc ff ff       	callq  400dc0 <strtoul@plt>
  40119b:	41 89 c6             	mov    %eax,%r14d
  40119e:	48 89 ea             	mov    %rbp,%rdx
  4011a1:	48 89 de             	mov    %rbx,%rsi
  4011a4:	44 89 e7             	mov    %r12d,%edi
  4011a7:	e8 04 fc ff ff       	callq  400db0 <getopt@plt>
  4011ac:	3c ff                	cmp    $0xff,%al
  4011ae:	74 62                	je     401212 <main+0x171>
  4011b0:	0f be d0             	movsbl %al,%edx
  4011b3:	83 e8 61             	sub    $0x61,%eax
  4011b6:	3c 10                	cmp    $0x10,%al
  4011b8:	77 3a                	ja     4011f4 <main+0x153>
  4011ba:	0f b6 c0             	movzbl %al,%eax
  4011bd:	48 8d 0d 24 20 00 00 	lea    0x2024(%rip),%rcx        # 4031e8 <_IO_stdin_used+0x1f8>
  4011c4:	48 63 04 81          	movslq (%rcx,%rax,4),%rax
  4011c8:	48 01 c8             	add    %rcx,%rax
  4011cb:	ff e0                	jmpq   *%rax
  4011cd:	ba 0a 00 00 00       	mov    $0xa,%edx
  4011d2:	be 00 00 00 00       	mov    $0x0,%esi
  4011d7:	48 8b 3d 8a 3f 20 00 	mov    0x203f8a(%rip),%rdi        # 605168 <optarg@@GLIBC_2.2.5>
  4011de:	e8 3d fb ff ff       	callq  400d20 <strtol@plt>
  4011e3:	41 89 c5             	mov    %eax,%r13d
  4011e6:	eb b6                	jmp    40119e <main+0xfd>
  4011e8:	c7 05 5e 3f 20 00 00 	movl   $0x0,0x203f5e(%rip)        # 605150 <notify>
  4011ef:	00 00 00 
  4011f2:	eb aa                	jmp    40119e <main+0xfd>
  4011f4:	48 8d 35 cc 1f 00 00 	lea    0x1fcc(%rip),%rsi        # 4031c7 <_IO_stdin_used+0x1d7>
  4011fb:	bf 01 00 00 00       	mov    $0x1,%edi
  401200:	b8 00 00 00 00       	mov    $0x0,%eax
  401205:	e8 86 fb ff ff       	callq  400d90 <__printf_chk@plt>
  40120a:	48 8b 3b             	mov    (%rbx),%rdi
  40120d:	e8 f5 fc ff ff       	callq  400f07 <usage>
  401212:	be 01 00 00 00       	mov    $0x1,%esi
  401217:	44 89 ef             	mov    %r13d,%edi
  40121a:	e8 84 fd ff ff       	callq  400fa3 <initialize_target>
  40121f:	83 3d c2 42 20 00 00 	cmpl   $0x0,0x2042c2(%rip)        # 6054e8 <is_checker>
  401226:	74 09                	je     401231 <main+0x190>
  401228:	44 39 35 b1 42 20 00 	cmp    %r14d,0x2042b1(%rip)        # 6054e0 <authkey>
  40122f:	75 36                	jne    401267 <main+0x1c6>
  401231:	8b 15 ad 42 20 00    	mov    0x2042ad(%rip),%edx        # 6054e4 <cookie>
  401237:	48 8d 35 9c 1f 00 00 	lea    0x1f9c(%rip),%rsi        # 4031da <_IO_stdin_used+0x1ea>
  40123e:	bf 01 00 00 00       	mov    $0x1,%edi
  401243:	b8 00 00 00 00       	mov    $0x0,%eax
  401248:	e8 43 fb ff ff       	callq  400d90 <__printf_chk@plt>
  40124d:	48 8b 3d f4 3e 20 00 	mov    0x203ef4(%rip),%rdi        # 605148 <buf_offset>
  401254:	e8 44 0e 00 00       	callq  40209d <launch>
  401259:	b8 00 00 00 00       	mov    $0x0,%eax
  40125e:	5b                   	pop    %rbx
  40125f:	5d                   	pop    %rbp
  401260:	41 5c                	pop    %r12
  401262:	41 5d                	pop    %r13
  401264:	41 5e                	pop    %r14
  401266:	c3                   	retq   
  401267:	44 89 f2             	mov    %r14d,%edx
  40126a:	48 8d 35 8f 1e 00 00 	lea    0x1e8f(%rip),%rsi        # 403100 <_IO_stdin_used+0x110>
  401271:	bf 01 00 00 00       	mov    $0x1,%edi
  401276:	b8 00 00 00 00       	mov    $0x0,%eax
  40127b:	e8 10 fb ff ff       	callq  400d90 <__printf_chk@plt>
  401280:	b8 00 00 00 00       	mov    $0x0,%eax
  401285:	e8 20 09 00 00       	callq  401baa <check_fail>
  40128a:	eb a5                	jmp    401231 <main+0x190>

000000000040128c <scramble>:
  40128c:	48 83 ec 38          	sub    $0x38,%rsp
  401290:	64 48 8b 04 25 28 00 	mov    %fs:0x28,%rax
  401297:	00 00 
  401299:	48 89 44 24 28       	mov    %rax,0x28(%rsp)
  40129e:	31 c0                	xor    %eax,%eax
  4012a0:	eb 10                	jmp    4012b2 <scramble+0x26>
  4012a2:	69 d0 4f 34 00 00    	imul   $0x344f,%eax,%edx
  4012a8:	01 fa                	add    %edi,%edx
  4012aa:	89 c1                	mov    %eax,%ecx
  4012ac:	89 14 8c             	mov    %edx,(%rsp,%rcx,4)
  4012af:	83 c0 01             	add    $0x1,%eax
  4012b2:	83 f8 09             	cmp    $0x9,%eax
  4012b5:	76 eb                	jbe    4012a2 <scramble+0x16>
  4012b7:	8b 44 24 14          	mov    0x14(%rsp),%eax
  4012bb:	69 c0 a4 0d 00 00    	imul   $0xda4,%eax,%eax
  4012c1:	89 44 24 14          	mov    %eax,0x14(%rsp)
  4012c5:	8b 44 24 1c          	mov    0x1c(%rsp),%eax
  4012c9:	69 c0 3f 1e 00 00    	imul   $0x1e3f,%eax,%eax
  4012cf:	89 44 24 1c          	mov    %eax,0x1c(%rsp)
  4012d3:	8b 44 24 08          	mov    0x8(%rsp),%eax
  4012d7:	69 c0 97 07 00 00    	imul   $0x797,%eax,%eax
  4012dd:	89 44 24 08          	mov    %eax,0x8(%rsp)
  4012e1:	8b 44 24 04          	mov    0x4(%rsp),%eax
  4012e5:	69 c0 2b 25 00 00    	imul   $0x252b,%eax,%eax
  4012eb:	89 44 24 04          	mov    %eax,0x4(%rsp)
  4012ef:	8b 44 24 04          	mov    0x4(%rsp),%eax
  4012f3:	69 c0 90 e1 00 00    	imul   $0xe190,%eax,%eax
  4012f9:	89 44 24 04          	mov    %eax,0x4(%rsp)
  4012fd:	8b 44 24 20          	mov    0x20(%rsp),%eax
  401301:	69 c0 24 dd 00 00    	imul   $0xdd24,%eax,%eax
  401307:	89 44 24 20          	mov    %eax,0x20(%rsp)
  40130b:	8b 44 24 24          	mov    0x24(%rsp),%eax
  40130f:	69 c0 4e 8a 00 00    	imul   $0x8a4e,%eax,%eax
  401315:	89 44 24 24          	mov    %eax,0x24(%rsp)
  401319:	8b 44 24 24          	mov    0x24(%rsp),%eax
  40131d:	69 c0 5d 4a 00 00    	imul   $0x4a5d,%eax,%eax
  401323:	89 44 24 24          	mov    %eax,0x24(%rsp)
  401327:	8b 44 24 1c          	mov    0x1c(%rsp),%eax
  40132b:	69 c0 77 14 00 00    	imul   $0x1477,%eax,%eax
  401331:	89 44 24 1c          	mov    %eax,0x1c(%rsp)
  401335:	8b 44 24 24          	mov    0x24(%rsp),%eax
  401339:	69 c0 c0 9e 00 00    	imul   $0x9ec0,%eax,%eax
  40133f:	89 44 24 24          	mov    %eax,0x24(%rsp)
  401343:	8b 44 24 20          	mov    0x20(%rsp),%eax
  401347:	69 c0 e3 c2 00 00    	imul   $0xc2e3,%eax,%eax
  40134d:	89 44 24 20          	mov    %eax,0x20(%rsp)
  401351:	8b 44 24 08          	mov    0x8(%rsp),%eax
  401355:	69 c0 f3 eb 00 00    	imul   $0xebf3,%eax,%eax
  40135b:	89 44 24 08          	mov    %eax,0x8(%rsp)
  40135f:	8b 44 24 1c          	mov    0x1c(%rsp),%eax
  401363:	69 c0 a3 5f 00 00    	imul   $0x5fa3,%eax,%eax
  401369:	89 44 24 1c          	mov    %eax,0x1c(%rsp)
  40136d:	8b 04 24             	mov    (%rsp),%eax
  401370:	69 c0 3c f9 00 00    	imul   $0xf93c,%eax,%eax
  401376:	89 04 24             	mov    %eax,(%rsp)
  401379:	8b 44 24 14          	mov    0x14(%rsp),%eax
  40137d:	69 c0 76 a2 00 00    	imul   $0xa276,%eax,%eax
  401383:	89 44 24 14          	mov    %eax,0x14(%rsp)
  401387:	8b 44 24 08          	mov    0x8(%rsp),%eax
  40138b:	69 c0 2f 48 00 00    	imul   $0x482f,%eax,%eax
  401391:	89 44 24 08          	mov    %eax,0x8(%rsp)
  401395:	8b 44 24 20          	mov    0x20(%rsp),%eax
  401399:	69 c0 09 90 00 00    	imul   $0x9009,%eax,%eax
  40139f:	89 44 24 20          	mov    %eax,0x20(%rsp)
  4013a3:	8b 44 24 20          	mov    0x20(%rsp),%eax
  4013a7:	69 c0 3d c6 00 00    	imul   $0xc63d,%eax,%eax
  4013ad:	89 44 24 20          	mov    %eax,0x20(%rsp)
  4013b1:	8b 04 24             	mov    (%rsp),%eax
  4013b4:	69 c0 0b 10 00 00    	imul   $0x100b,%eax,%eax
  4013ba:	89 04 24             	mov    %eax,(%rsp)
  4013bd:	8b 44 24 0c          	mov    0xc(%rsp),%eax
  4013c1:	69 c0 b6 07 00 00    	imul   $0x7b6,%eax,%eax
  4013c7:	89 44 24 0c          	mov    %eax,0xc(%rsp)
  4013cb:	8b 44 24 10          	mov    0x10(%rsp),%eax
  4013cf:	69 c0 c7 db 00 00    	imul   $0xdbc7,%eax,%eax
  4013d5:	89 44 24 10          	mov    %eax,0x10(%rsp)
  4013d9:	8b 44 24 1c          	mov    0x1c(%rsp),%eax
  4013dd:	69 c0 57 d2 00 00    	imul   $0xd257,%eax,%eax
  4013e3:	89 44 24 1c          	mov    %eax,0x1c(%rsp)
  4013e7:	8b 44 24 04          	mov    0x4(%rsp),%eax
  4013eb:	69 c0 9c a6 00 00    	imul   $0xa69c,%eax,%eax
  4013f1:	89 44 24 04          	mov    %eax,0x4(%rsp)
  4013f5:	8b 44 24 14          	mov    0x14(%rsp),%eax
  4013f9:	69 c0 50 5c 00 00    	imul   $0x5c50,%eax,%eax
  4013ff:	89 44 24 14          	mov    %eax,0x14(%rsp)
  401403:	8b 44 24 04          	mov    0x4(%rsp),%eax
  401407:	69 c0 a4 ec 00 00    	imul   $0xeca4,%eax,%eax
  40140d:	89 44 24 04          	mov    %eax,0x4(%rsp)
  401411:	8b 44 24 20          	mov    0x20(%rsp),%eax
  401415:	69 c0 d1 51 00 00    	imul   $0x51d1,%eax,%eax
  40141b:	89 44 24 20          	mov    %eax,0x20(%rsp)
  40141f:	8b 04 24             	mov    (%rsp),%eax
  401422:	69 c0 f9 74 00 00    	imul   $0x74f9,%eax,%eax
  401428:	89 04 24             	mov    %eax,(%rsp)
  40142b:	8b 44 24 10          	mov    0x10(%rsp),%eax
  40142f:	69 c0 42 04 00 00    	imul   $0x442,%eax,%eax
  401435:	89 44 24 10          	mov    %eax,0x10(%rsp)
  401439:	8b 04 24             	mov    (%rsp),%eax
  40143c:	69 c0 33 94 00 00    	imul   $0x9433,%eax,%eax
  401442:	89 04 24             	mov    %eax,(%rsp)
  401445:	8b 44 24 14          	mov    0x14(%rsp),%eax
  401449:	69 c0 7c e8 00 00    	imul   $0xe87c,%eax,%eax
  40144f:	89 44 24 14          	mov    %eax,0x14(%rsp)
  401453:	8b 44 24 14          	mov    0x14(%rsp),%eax
  401457:	69 c0 31 62 00 00    	imul   $0x6231,%eax,%eax
  40145d:	89 44 24 14          	mov    %eax,0x14(%rsp)
  401461:	8b 44 24 20          	mov    0x20(%rsp),%eax
  401465:	69 c0 c3 e6 00 00    	imul   $0xe6c3,%eax,%eax
  40146b:	89 44 24 20          	mov    %eax,0x20(%rsp)
  40146f:	8b 44 24 24          	mov    0x24(%rsp),%eax
  401473:	69 c0 1a 97 00 00    	imul   $0x971a,%eax,%eax
  401479:	89 44 24 24          	mov    %eax,0x24(%rsp)
  40147d:	8b 44 24 24          	mov    0x24(%rsp),%eax
  401481:	69 c0 db 89 00 00    	imul   $0x89db,%eax,%eax
  401487:	89 44 24 24          	mov    %eax,0x24(%rsp)
  40148b:	8b 44 24 24          	mov    0x24(%rsp),%eax
  40148f:	69 c0 69 98 00 00    	imul   $0x9869,%eax,%eax
  401495:	89 44 24 24          	mov    %eax,0x24(%rsp)
  401499:	8b 44 24 04          	mov    0x4(%rsp),%eax
  40149d:	69 c0 c0 98 00 00    	imul   $0x98c0,%eax,%eax
  4014a3:	89 44 24 04          	mov    %eax,0x4(%rsp)
  4014a7:	8b 44 24 1c          	mov    0x1c(%rsp),%eax
  4014ab:	69 c0 6b 76 00 00    	imul   $0x766b,%eax,%eax
  4014b1:	89 44 24 1c          	mov    %eax,0x1c(%rsp)
  4014b5:	8b 44 24 04          	mov    0x4(%rsp),%eax
  4014b9:	69 c0 46 da 00 00    	imul   $0xda46,%eax,%eax
  4014bf:	89 44 24 04          	mov    %eax,0x4(%rsp)
  4014c3:	8b 44 24 24          	mov    0x24(%rsp),%eax
  4014c7:	69 c0 cc 87 00 00    	imul   $0x87cc,%eax,%eax
  4014cd:	89 44 24 24          	mov    %eax,0x24(%rsp)
  4014d1:	8b 44 24 1c          	mov    0x1c(%rsp),%eax
  4014d5:	69 c0 1b d8 00 00    	imul   $0xd81b,%eax,%eax
  4014db:	89 44 24 1c          	mov    %eax,0x1c(%rsp)
  4014df:	8b 44 24 18          	mov    0x18(%rsp),%eax
  4014e3:	69 c0 a8 31 00 00    	imul   $0x31a8,%eax,%eax
  4014e9:	89 44 24 18          	mov    %eax,0x18(%rsp)
  4014ed:	8b 44 24 0c          	mov    0xc(%rsp),%eax
  4014f1:	69 c0 f9 23 00 00    	imul   $0x23f9,%eax,%eax
  4014f7:	89 44 24 0c          	mov    %eax,0xc(%rsp)
  4014fb:	8b 44 24 24          	mov    0x24(%rsp),%eax
  4014ff:	69 c0 b0 67 00 00    	imul   $0x67b0,%eax,%eax
  401505:	89 44 24 24          	mov    %eax,0x24(%rsp)
  401509:	8b 44 24 1c          	mov    0x1c(%rsp),%eax
  40150d:	69 c0 3d 7b 00 00    	imul   $0x7b3d,%eax,%eax
  401513:	89 44 24 1c          	mov    %eax,0x1c(%rsp)
  401517:	8b 44 24 20          	mov    0x20(%rsp),%eax
  40151b:	69 c0 b9 25 00 00    	imul   $0x25b9,%eax,%eax
  401521:	89 44 24 20          	mov    %eax,0x20(%rsp)
  401525:	8b 44 24 18          	mov    0x18(%rsp),%eax
  401529:	69 c0 8c 32 00 00    	imul   $0x328c,%eax,%eax
  40152f:	89 44 24 18          	mov    %eax,0x18(%rsp)
  401533:	8b 44 24 04          	mov    0x4(%rsp),%eax
  401537:	69 c0 65 94 00 00    	imul   $0x9465,%eax,%eax
  40153d:	89 44 24 04          	mov    %eax,0x4(%rsp)
  401541:	8b 44 24 24          	mov    0x24(%rsp),%eax
  401545:	69 c0 25 7a 00 00    	imul   $0x7a25,%eax,%eax
  40154b:	89 44 24 24          	mov    %eax,0x24(%rsp)
  40154f:	8b 44 24 10          	mov    0x10(%rsp),%eax
  401553:	69 c0 50 c6 00 00    	imul   $0xc650,%eax,%eax
  401559:	89 44 24 10          	mov    %eax,0x10(%rsp)
  40155d:	8b 44 24 08          	mov    0x8(%rsp),%eax
  401561:	69 c0 a4 d2 00 00    	imul   $0xd2a4,%eax,%eax
  401567:	89 44 24 08          	mov    %eax,0x8(%rsp)
  40156b:	8b 44 24 08          	mov    0x8(%rsp),%eax
  40156f:	69 c0 91 95 00 00    	imul   $0x9591,%eax,%eax
  401575:	89 44 24 08          	mov    %eax,0x8(%rsp)
  401579:	8b 04 24             	mov    (%rsp),%eax
  40157c:	69 c0 eb d2 00 00    	imul   $0xd2eb,%eax,%eax
  401582:	89 04 24             	mov    %eax,(%rsp)
  401585:	8b 44 24 14          	mov    0x14(%rsp),%eax
  401589:	69 c0 7c d6 00 00    	imul   $0xd67c,%eax,%eax
  40158f:	89 44 24 14          	mov    %eax,0x14(%rsp)
  401593:	8b 44 24 08          	mov    0x8(%rsp),%eax
  401597:	69 c0 04 29 00 00    	imul   $0x2904,%eax,%eax
  40159d:	89 44 24 08          	mov    %eax,0x8(%rsp)
  4015a1:	8b 44 24 04          	mov    0x4(%rsp),%eax
  4015a5:	69 c0 c8 e3 00 00    	imul   $0xe3c8,%eax,%eax
  4015ab:	89 44 24 04          	mov    %eax,0x4(%rsp)
  4015af:	8b 44 24 20          	mov    0x20(%rsp),%eax
  4015b3:	69 c0 b9 d2 00 00    	imul   $0xd2b9,%eax,%eax
  4015b9:	89 44 24 20          	mov    %eax,0x20(%rsp)
  4015bd:	8b 44 24 20          	mov    0x20(%rsp),%eax
  4015c1:	69 c0 0b 2b 00 00    	imul   $0x2b0b,%eax,%eax
  4015c7:	89 44 24 20          	mov    %eax,0x20(%rsp)
  4015cb:	8b 44 24 14          	mov    0x14(%rsp),%eax
  4015cf:	69 c0 11 bc 00 00    	imul   $0xbc11,%eax,%eax
  4015d5:	89 44 24 14          	mov    %eax,0x14(%rsp)
  4015d9:	8b 44 24 14          	mov    0x14(%rsp),%eax
  4015dd:	69 c0 ed 1e 00 00    	imul   $0x1eed,%eax,%eax
  4015e3:	89 44 24 14          	mov    %eax,0x14(%rsp)
  4015e7:	8b 44 24 18          	mov    0x18(%rsp),%eax
  4015eb:	69 c0 9e 8e 00 00    	imul   $0x8e9e,%eax,%eax
  4015f1:	89 44 24 18          	mov    %eax,0x18(%rsp)
  4015f5:	8b 44 24 20          	mov    0x20(%rsp),%eax
  4015f9:	69 c0 09 9b 00 00    	imul   $0x9b09,%eax,%eax
  4015ff:	89 44 24 20          	mov    %eax,0x20(%rsp)
  401603:	8b 44 24 20          	mov    0x20(%rsp),%eax
  401607:	69 c0 91 cc 00 00    	imul   $0xcc91,%eax,%eax
  40160d:	89 44 24 20          	mov    %eax,0x20(%rsp)
  401611:	8b 44 24 08          	mov    0x8(%rsp),%eax
  401615:	69 c0 79 da 00 00    	imul   $0xda79,%eax,%eax
  40161b:	89 44 24 08          	mov    %eax,0x8(%rsp)
  40161f:	8b 44 24 10          	mov    0x10(%rsp),%eax
  401623:	69 c0 ee 5a 00 00    	imul   $0x5aee,%eax,%eax
  401629:	89 44 24 10          	mov    %eax,0x10(%rsp)
  40162d:	8b 04 24             	mov    (%rsp),%eax
  401630:	69 c0 b6 4a 00 00    	imul   $0x4ab6,%eax,%eax
  401636:	89 04 24             	mov    %eax,(%rsp)
  401639:	8b 44 24 0c          	mov    0xc(%rsp),%eax
  40163d:	69 c0 84 ff 00 00    	imul   $0xff84,%eax,%eax
  401643:	89 44 24 0c          	mov    %eax,0xc(%rsp)
  401647:	8b 44 24 0c          	mov    0xc(%rsp),%eax
  40164b:	69 c0 f7 98 00 00    	imul   $0x98f7,%eax,%eax
  401651:	89 44 24 0c          	mov    %eax,0xc(%rsp)
  401655:	8b 44 24 1c          	mov    0x1c(%rsp),%eax
  401659:	69 c0 43 ec 00 00    	imul   $0xec43,%eax,%eax
  40165f:	89 44 24 1c          	mov    %eax,0x1c(%rsp)
  401663:	8b 44 24 24          	mov    0x24(%rsp),%eax
  401667:	69 c0 a0 7f 00 00    	imul   $0x7fa0,%eax,%eax
  40166d:	89 44 24 24          	mov    %eax,0x24(%rsp)
  401671:	8b 44 24 1c          	mov    0x1c(%rsp),%eax
  401675:	69 c0 bb cd 00 00    	imul   $0xcdbb,%eax,%eax
  40167b:	89 44 24 1c          	mov    %eax,0x1c(%rsp)
  40167f:	8b 44 24 04          	mov    0x4(%rsp),%eax
  401683:	69 c0 66 16 00 00    	imul   $0x1666,%eax,%eax
  401689:	89 44 24 04          	mov    %eax,0x4(%rsp)
  40168d:	8b 44 24 04          	mov    0x4(%rsp),%eax
  401691:	69 c0 d9 78 00 00    	imul   $0x78d9,%eax,%eax
  401697:	89 44 24 04          	mov    %eax,0x4(%rsp)
  40169b:	8b 44 24 0c          	mov    0xc(%rsp),%eax
  40169f:	69 c0 27 97 00 00    	imul   $0x9727,%eax,%eax
  4016a5:	89 44 24 0c          	mov    %eax,0xc(%rsp)
  4016a9:	8b 44 24 24          	mov    0x24(%rsp),%eax
  4016ad:	69 c0 2c d4 00 00    	imul   $0xd42c,%eax,%eax
  4016b3:	89 44 24 24          	mov    %eax,0x24(%rsp)
  4016b7:	8b 04 24             	mov    (%rsp),%eax
  4016ba:	69 c0 3a 6c 00 00    	imul   $0x6c3a,%eax,%eax
  4016c0:	89 04 24             	mov    %eax,(%rsp)
  4016c3:	8b 44 24 14          	mov    0x14(%rsp),%eax
  4016c7:	69 c0 bb fa 00 00    	imul   $0xfabb,%eax,%eax
  4016cd:	89 44 24 14          	mov    %eax,0x14(%rsp)
  4016d1:	8b 44 24 08          	mov    0x8(%rsp),%eax
  4016d5:	69 c0 f4 23 00 00    	imul   $0x23f4,%eax,%eax
  4016db:	89 44 24 08          	mov    %eax,0x8(%rsp)
  4016df:	8b 44 24 08          	mov    0x8(%rsp),%eax
  4016e3:	69 c0 b1 36 00 00    	imul   $0x36b1,%eax,%eax
  4016e9:	89 44 24 08          	mov    %eax,0x8(%rsp)
  4016ed:	8b 44 24 1c          	mov    0x1c(%rsp),%eax
  4016f1:	69 c0 02 0e 00 00    	imul   $0xe02,%eax,%eax
  4016f7:	89 44 24 1c          	mov    %eax,0x1c(%rsp)
  4016fb:	8b 44 24 08          	mov    0x8(%rsp),%eax
  4016ff:	69 c0 38 9f 00 00    	imul   $0x9f38,%eax,%eax
  401705:	89 44 24 08          	mov    %eax,0x8(%rsp)
  401709:	8b 44 24 10          	mov    0x10(%rsp),%eax
  40170d:	69 c0 32 bf 00 00    	imul   $0xbf32,%eax,%eax
  401713:	89 44 24 10          	mov    %eax,0x10(%rsp)
  401717:	8b 44 24 14          	mov    0x14(%rsp),%eax
  40171b:	69 c0 ff 38 00 00    	imul   $0x38ff,%eax,%eax
  401721:	89 44 24 14          	mov    %eax,0x14(%rsp)
  401725:	8b 44 24 14          	mov    0x14(%rsp),%eax
  401729:	69 c0 2b 71 00 00    	imul   $0x712b,%eax,%eax
  40172f:	89 44 24 14          	mov    %eax,0x14(%rsp)
  401733:	8b 44 24 24          	mov    0x24(%rsp),%eax
  401737:	69 c0 9c c7 00 00    	imul   $0xc79c,%eax,%eax
  40173d:	89 44 24 24          	mov    %eax,0x24(%rsp)
  401741:	8b 44 24 0c          	mov    0xc(%rsp),%eax
  401745:	69 c0 8a 3a 00 00    	imul   $0x3a8a,%eax,%eax
  40174b:	89 44 24 0c          	mov    %eax,0xc(%rsp)
  40174f:	8b 44 24 24          	mov    0x24(%rsp),%eax
  401753:	69 c0 34 54 00 00    	imul   $0x5434,%eax,%eax
  401759:	89 44 24 24          	mov    %eax,0x24(%rsp)
  40175d:	8b 44 24 18          	mov    0x18(%rsp),%eax
  401761:	69 c0 cc 35 00 00    	imul   $0x35cc,%eax,%eax
  401767:	89 44 24 18          	mov    %eax,0x18(%rsp)
  40176b:	8b 44 24 20          	mov    0x20(%rsp),%eax
  40176f:	69 c0 62 92 00 00    	imul   $0x9262,%eax,%eax
  401775:	89 44 24 20          	mov    %eax,0x20(%rsp)
  401779:	8b 44 24 24          	mov    0x24(%rsp),%eax
  40177d:	69 c0 f9 01 00 00    	imul   $0x1f9,%eax,%eax
  401783:	89 44 24 24          	mov    %eax,0x24(%rsp)
  401787:	8b 44 24 04          	mov    0x4(%rsp),%eax
  40178b:	69 c0 09 83 00 00    	imul   $0x8309,%eax,%eax
  401791:	89 44 24 04          	mov    %eax,0x4(%rsp)
  401795:	8b 44 24 18          	mov    0x18(%rsp),%eax
  401799:	69 c0 59 c9 00 00    	imul   $0xc959,%eax,%eax
  40179f:	89 44 24 18          	mov    %eax,0x18(%rsp)
  4017a3:	8b 44 24 08          	mov    0x8(%rsp),%eax
  4017a7:	69 c0 76 75 00 00    	imul   $0x7576,%eax,%eax
  4017ad:	89 44 24 08          	mov    %eax,0x8(%rsp)
  4017b1:	8b 44 24 0c          	mov    0xc(%rsp),%eax
  4017b5:	69 c0 11 45 00 00    	imul   $0x4511,%eax,%eax
  4017bb:	89 44 24 0c          	mov    %eax,0xc(%rsp)
  4017bf:	8b 44 24 14          	mov    0x14(%rsp),%eax
  4017c3:	69 c0 bc eb 00 00    	imul   $0xebbc,%eax,%eax
  4017c9:	89 44 24 14          	mov    %eax,0x14(%rsp)
  4017cd:	8b 44 24 10          	mov    0x10(%rsp),%eax
  4017d1:	69 c0 c7 3d 00 00    	imul   $0x3dc7,%eax,%eax
  4017d7:	89 44 24 10          	mov    %eax,0x10(%rsp)
  4017db:	8b 44 24 24          	mov    0x24(%rsp),%eax
  4017df:	69 c0 cc ab 00 00    	imul   $0xabcc,%eax,%eax
  4017e5:	89 44 24 24          	mov    %eax,0x24(%rsp)
  4017e9:	ba 00 00 00 00       	mov    $0x0,%edx
  4017ee:	b8 00 00 00 00       	mov    $0x0,%eax
  4017f3:	eb 0a                	jmp    4017ff <scramble+0x573>
  4017f5:	89 d1                	mov    %edx,%ecx
  4017f7:	8b 0c 8c             	mov    (%rsp,%rcx,4),%ecx
  4017fa:	01 c8                	add    %ecx,%eax
  4017fc:	83 c2 01             	add    $0x1,%edx
  4017ff:	83 fa 09             	cmp    $0x9,%edx
  401802:	76 f1                	jbe    4017f5 <scramble+0x569>
  401804:	48 8b 74 24 28       	mov    0x28(%rsp),%rsi
  401809:	64 48 33 34 25 28 00 	xor    %fs:0x28,%rsi
  401810:	00 00 
  401812:	75 05                	jne    401819 <scramble+0x58d>
  401814:	48 83 c4 38          	add    $0x38,%rsp
  401818:	c3                   	retq   
  401819:	e8 62 f4 ff ff       	callq  400c80 <__stack_chk_fail@plt>

000000000040181e <getbuf>:
  40181e:	48 83 ec 28          	sub    $0x28,%rsp
  401822:	48 89 e7             	mov    %rsp,%rdi
  401825:	e8 b8 03 00 00       	callq  401be2 <Gets>
  40182a:	b8 01 00 00 00       	mov    $0x1,%eax
  40182f:	48 83 c4 28          	add    $0x28,%rsp
  401833:	c3                   	retq   

0000000000401834 <touch1>:
  401834:	48 83 ec 08          	sub    $0x8,%rsp
  401838:	c7 05 9a 3c 20 00 01 	movl   $0x1,0x203c9a(%rip)        # 6054dc <vlevel>
  40183f:	00 00 00 
  401842:	48 8d 3d 01 1a 00 00 	lea    0x1a01(%rip),%rdi        # 40324a <_IO_stdin_used+0x25a>
  401849:	e8 12 f4 ff ff       	callq  400c60 <puts@plt>
  40184e:	bf 01 00 00 00       	mov    $0x1,%edi
  401853:	e8 fa 05 00 00       	callq  401e52 <validate>
  401858:	bf 00 00 00 00       	mov    $0x0,%edi
  40185d:	e8 6e f5 ff ff       	callq  400dd0 <exit@plt>

0000000000401862 <touch2>:
  401862:	48 83 ec 08          	sub    $0x8,%rsp
  401866:	89 fa                	mov    %edi,%edx
  401868:	c7 05 6a 3c 20 00 02 	movl   $0x2,0x203c6a(%rip)        # 6054dc <vlevel>
  40186f:	00 00 00 
  401872:	39 3d 6c 3c 20 00    	cmp    %edi,0x203c6c(%rip)        # 6054e4 <cookie>
  401878:	74 2a                	je     4018a4 <touch2+0x42>
  40187a:	48 8d 35 17 1a 00 00 	lea    0x1a17(%rip),%rsi        # 403298 <_IO_stdin_used+0x2a8>
  401881:	bf 01 00 00 00       	mov    $0x1,%edi
  401886:	b8 00 00 00 00       	mov    $0x0,%eax
  40188b:	e8 00 f5 ff ff       	callq  400d90 <__printf_chk@plt>
  401890:	bf 02 00 00 00       	mov    $0x2,%edi
  401895:	e8 88 06 00 00       	callq  401f22 <fail>
  40189a:	bf 00 00 00 00       	mov    $0x0,%edi
  40189f:	e8 2c f5 ff ff       	callq  400dd0 <exit@plt>
  4018a4:	48 8d 35 c5 19 00 00 	lea    0x19c5(%rip),%rsi        # 403270 <_IO_stdin_used+0x280>
  4018ab:	bf 01 00 00 00       	mov    $0x1,%edi
  4018b0:	b8 00 00 00 00       	mov    $0x0,%eax
  4018b5:	e8 d6 f4 ff ff       	callq  400d90 <__printf_chk@plt>
  4018ba:	bf 02 00 00 00       	mov    $0x2,%edi
  4018bf:	e8 8e 05 00 00       	callq  401e52 <validate>
  4018c4:	eb d4                	jmp    40189a <touch2+0x38>

00000000004018c6 <hexmatch>:
  4018c6:	41 54                	push   %r12
  4018c8:	55                   	push   %rbp
  4018c9:	53                   	push   %rbx
  4018ca:	48 83 c4 80          	add    $0xffffffffffffff80,%rsp
  4018ce:	89 fd                	mov    %edi,%ebp
  4018d0:	48 89 f3             	mov    %rsi,%rbx
  4018d3:	64 48 8b 04 25 28 00 	mov    %fs:0x28,%rax
  4018da:	00 00 
  4018dc:	48 89 44 24 78       	mov    %rax,0x78(%rsp)
  4018e1:	31 c0                	xor    %eax,%eax
  4018e3:	e8 78 f4 ff ff       	callq  400d60 <random@plt>
  4018e8:	48 89 c1             	mov    %rax,%rcx
  4018eb:	48 ba 0b d7 a3 70 3d 	movabs $0xa3d70a3d70a3d70b,%rdx
  4018f2:	0a d7 a3 
  4018f5:	48 f7 ea             	imul   %rdx
  4018f8:	48 01 ca             	add    %rcx,%rdx
  4018fb:	48 c1 fa 06          	sar    $0x6,%rdx
  4018ff:	48 89 c8             	mov    %rcx,%rax
  401902:	48 c1 f8 3f          	sar    $0x3f,%rax
  401906:	48 29 c2             	sub    %rax,%rdx
  401909:	48 8d 04 92          	lea    (%rdx,%rdx,4),%rax
  40190d:	48 8d 14 80          	lea    (%rax,%rax,4),%rdx
  401911:	48 8d 04 95 00 00 00 	lea    0x0(,%rdx,4),%rax
  401918:	00 
  401919:	48 29 c1             	sub    %rax,%rcx
  40191c:	4c 8d 24 0c          	lea    (%rsp,%rcx,1),%r12
  401920:	41 89 e8             	mov    %ebp,%r8d
  401923:	48 8d 0d 3d 19 00 00 	lea    0x193d(%rip),%rcx        # 403267 <_IO_stdin_used+0x277>
  40192a:	48 c7 c2 ff ff ff ff 	mov    $0xffffffffffffffff,%rdx
  401931:	be 01 00 00 00       	mov    $0x1,%esi
  401936:	4c 89 e7             	mov    %r12,%rdi
  401939:	b8 00 00 00 00       	mov    $0x0,%eax
  40193e:	e8 bd f4 ff ff       	callq  400e00 <__sprintf_chk@plt>
  401943:	ba 09 00 00 00       	mov    $0x9,%edx
  401948:	4c 89 e6             	mov    %r12,%rsi
  40194b:	48 89 df             	mov    %rbx,%rdi
  40194e:	e8 ed f2 ff ff       	callq  400c40 <strncmp@plt>
  401953:	85 c0                	test   %eax,%eax
  401955:	0f 94 c0             	sete   %al
  401958:	48 8b 5c 24 78       	mov    0x78(%rsp),%rbx
  40195d:	64 48 33 1c 25 28 00 	xor    %fs:0x28,%rbx
  401964:	00 00 
  401966:	75 0c                	jne    401974 <hexmatch+0xae>
  401968:	0f b6 c0             	movzbl %al,%eax
  40196b:	48 83 ec 80          	sub    $0xffffffffffffff80,%rsp
  40196f:	5b                   	pop    %rbx
  401970:	5d                   	pop    %rbp
  401971:	41 5c                	pop    %r12
  401973:	c3                   	retq   
  401974:	e8 07 f3 ff ff       	callq  400c80 <__stack_chk_fail@plt>

0000000000401979 <touch3>:
  401979:	53                   	push   %rbx
  40197a:	48 89 fb             	mov    %rdi,%rbx
  40197d:	c7 05 55 3b 20 00 03 	movl   $0x3,0x203b55(%rip)        # 6054dc <vlevel>
  401984:	00 00 00 
  401987:	48 89 fe             	mov    %rdi,%rsi
  40198a:	8b 3d 54 3b 20 00    	mov    0x203b54(%rip),%edi        # 6054e4 <cookie>
  401990:	e8 31 ff ff ff       	callq  4018c6 <hexmatch>
  401995:	85 c0                	test   %eax,%eax
  401997:	74 2d                	je     4019c6 <touch3+0x4d>
  401999:	48 89 da             	mov    %rbx,%rdx
  40199c:	48 8d 35 1d 19 00 00 	lea    0x191d(%rip),%rsi        # 4032c0 <_IO_stdin_used+0x2d0>
  4019a3:	bf 01 00 00 00       	mov    $0x1,%edi
  4019a8:	b8 00 00 00 00       	mov    $0x0,%eax
  4019ad:	e8 de f3 ff ff       	callq  400d90 <__printf_chk@plt>
  4019b2:	bf 03 00 00 00       	mov    $0x3,%edi
  4019b7:	e8 96 04 00 00       	callq  401e52 <validate>
  4019bc:	bf 00 00 00 00       	mov    $0x0,%edi
  4019c1:	e8 0a f4 ff ff       	callq  400dd0 <exit@plt>
  4019c6:	48 89 da             	mov    %rbx,%rdx
  4019c9:	48 8d 35 18 19 00 00 	lea    0x1918(%rip),%rsi        # 4032e8 <_IO_stdin_used+0x2f8>
  4019d0:	bf 01 00 00 00       	mov    $0x1,%edi
  4019d5:	b8 00 00 00 00       	mov    $0x0,%eax
  4019da:	e8 b1 f3 ff ff       	callq  400d90 <__printf_chk@plt>
  4019df:	bf 03 00 00 00       	mov    $0x3,%edi
  4019e4:	e8 39 05 00 00       	callq  401f22 <fail>
  4019e9:	eb d1                	jmp    4019bc <touch3+0x43>

00000000004019eb <test>:
  4019eb:	48 83 ec 08          	sub    $0x8,%rsp
  4019ef:	b8 00 00 00 00       	mov    $0x0,%eax
  4019f4:	e8 25 fe ff ff       	callq  40181e <getbuf>
  4019f9:	89 c2                	mov    %eax,%edx
  4019fb:	48 8d 35 0e 19 00 00 	lea    0x190e(%rip),%rsi        # 403310 <_IO_stdin_used+0x320>
  401a02:	bf 01 00 00 00       	mov    $0x1,%edi
  401a07:	b8 00 00 00 00       	mov    $0x0,%eax
  401a0c:	e8 7f f3 ff ff       	callq  400d90 <__printf_chk@plt>
  401a11:	48 83 c4 08          	add    $0x8,%rsp
  401a15:	c3                   	retq   

0000000000401a16 <start_farm>:
  401a16:	b8 01 00 00 00       	mov    $0x1,%eax
  401a1b:	c3                   	retq   

0000000000401a1c <getval_224>:
  401a1c:	b8 50 90 c3 b2       	mov    $0xb2c39050,%eax
  401a21:	c3                   	retq   

0000000000401a22 <addval_201>:
  401a22:	8d 87 7a 11 58 90    	lea    -0x6fa7ee86(%rdi),%eax
  401a28:	c3                   	retq   

0000000000401a29 <getval_337>:
  401a29:	b8 48 8d c7 90       	mov    $0x90c78d48,%eax
  401a2e:	c3                   	retq   

0000000000401a2f <setval_198>:
  401a2f:	c7 07 48 89 c7 91    	movl   $0x91c78948,(%rdi)
  401a35:	c3                   	retq   

0000000000401a36 <setval_299>:
  401a36:	c7 07 48 89 c7 90    	movl   $0x90c78948,(%rdi)
  401a3c:	c3                   	retq   

0000000000401a3d <getval_315>:
  401a3d:	b8 dd 8c 48 58       	mov    $0x58488cdd,%eax
  401a42:	c3                   	retq   

0000000000401a43 <addval_133>:
  401a43:	8d 87 48 90 90 c3    	lea    -0x3c6f6fb8(%rdi),%eax
  401a49:	c3                   	retq   

0000000000401a4a <addval_347>:
  401a4a:	8d 87 48 89 c7 90    	lea    -0x6f3876b8(%rdi),%eax
  401a50:	c3                   	retq   

0000000000401a51 <mid_farm>:
  401a51:	b8 01 00 00 00       	mov    $0x1,%eax
  401a56:	c3                   	retq   

0000000000401a57 <add_xy>:
  401a57:	48 8d 04 37          	lea    (%rdi,%rsi,1),%rax
  401a5b:	c3                   	retq   

0000000000401a5c <getval_490>:
  401a5c:	b8 8b ce 90 c3       	mov    $0xc390ce8b,%eax
  401a61:	c3                   	retq   

0000000000401a62 <addval_422>:
  401a62:	8d 87 89 d1 78 c0    	lea    -0x3f872e77(%rdi),%eax
  401a68:	c3                   	retq   

0000000000401a69 <getval_203>:
  401a69:	b8 89 c2 c4 c0       	mov    $0xc0c4c289,%eax
  401a6e:	c3                   	retq   

0000000000401a6f <setval_489>:
  401a6f:	c7 07 99 d1 c3 19    	movl   $0x19c3d199,(%rdi)
  401a75:	c3                   	retq   

0000000000401a76 <getval_296>:
  401a76:	b8 89 ce 90 c3       	mov    $0xc390ce89,%eax
  401a7b:	c3                   	retq   

0000000000401a7c <setval_112>:
  401a7c:	c7 07 89 d1 18 c9    	movl   $0xc918d189,(%rdi)
  401a82:	c3                   	retq   

0000000000401a83 <getval_419>:
  401a83:	b8 a9 d1 38 d2       	mov    $0xd238d1a9,%eax
  401a88:	c3                   	retq   

0000000000401a89 <setval_329>:
  401a89:	c7 07 48 89 e0 c7    	movl   $0xc7e08948,(%rdi)
  401a8f:	c3                   	retq   

0000000000401a90 <setval_172>:
  401a90:	c7 07 48 89 e0 c7    	movl   $0xc7e08948,(%rdi)
  401a96:	c3                   	retq   

0000000000401a97 <addval_256>:
  401a97:	8d 87 8d c2 08 db    	lea    -0x24f73d73(%rdi),%eax
  401a9d:	c3                   	retq   

0000000000401a9e <setval_395>:
  401a9e:	c7 07 a9 ce 84 d2    	movl   $0xd284cea9,(%rdi)
  401aa4:	c3                   	retq   

0000000000401aa5 <addval_396>:
  401aa5:	8d 87 a9 ce 84 d2    	lea    -0x2d7b3157(%rdi),%eax
  401aab:	c3                   	retq   

0000000000401aac <setval_434>:
  401aac:	c7 07 48 89 e0 90    	movl   $0x90e08948,(%rdi)
  401ab2:	c3                   	retq   

0000000000401ab3 <getval_211>:
  401ab3:	b8 89 ce 78 d2       	mov    $0xd278ce89,%eax
  401ab8:	c3                   	retq   

0000000000401ab9 <addval_148>:
  401ab9:	8d 87 89 c2 60 c0    	lea    -0x3f9f3d77(%rdi),%eax
  401abf:	c3                   	retq   

0000000000401ac0 <setval_467>:
  401ac0:	c7 07 5c 89 d1 c3    	movl   $0xc3d1895c,(%rdi)
  401ac6:	c3                   	retq   

0000000000401ac7 <addval_381>:
  401ac7:	8d 87 09 d1 38 d2    	lea    -0x2dc72ef7(%rdi),%eax
  401acd:	c3                   	retq   

0000000000401ace <setval_413>:
  401ace:	c7 07 89 d1 90 c3    	movl   $0xc390d189,(%rdi)
  401ad4:	c3                   	retq   

0000000000401ad5 <addval_151>:
  401ad5:	8d 87 48 89 e0 c2    	lea    -0x3d1f76b8(%rdi),%eax
  401adb:	c3                   	retq   

0000000000401adc <addval_457>:
  401adc:	8d 87 89 d1 78 d2    	lea    -0x2d872e77(%rdi),%eax
  401ae2:	c3                   	retq   

0000000000401ae3 <addval_182>:
  401ae3:	8d 87 64 40 89 e0    	lea    -0x1f76bf9c(%rdi),%eax
  401ae9:	c3                   	retq   

0000000000401aea <setval_238>:
  401aea:	c7 07 d3 89 c2 90    	movl   $0x90c289d3,(%rdi)
  401af0:	c3                   	retq   

0000000000401af1 <setval_458>:
  401af1:	c7 07 89 c2 a4 c9    	movl   $0xc9a4c289,(%rdi)
  401af7:	c3                   	retq   

0000000000401af8 <addval_122>:
  401af8:	8d 87 d7 89 ce c2    	lea    -0x3d317629(%rdi),%eax
  401afe:	c3                   	retq   

0000000000401aff <getval_157>:
  401aff:	b8 48 c9 e0 c3       	mov    $0xc3e0c948,%eax
  401b04:	c3                   	retq   

0000000000401b05 <getval_460>:
  401b05:	b8 48 89 e0 c3       	mov    $0xc3e08948,%eax
  401b0a:	c3                   	retq   

0000000000401b0b <setval_356>:
  401b0b:	c7 07 89 ce 90 c3    	movl   $0xc390ce89,(%rdi)
  401b11:	c3                   	retq   

0000000000401b12 <getval_233>:
  401b12:	b8 89 c2 84 db       	mov    $0xdb84c289,%eax
  401b17:	c3                   	retq   

0000000000401b18 <setval_137>:
  401b18:	c7 07 99 ce 20 c0    	movl   $0xc020ce99,(%rdi)
  401b1e:	c3                   	retq   

0000000000401b1f <setval_293>:
  401b1f:	c7 07 a9 c2 20 d2    	movl   $0xd220c2a9,(%rdi)
  401b25:	c3                   	retq   

0000000000401b26 <setval_216>:
  401b26:	c7 07 49 89 e0 c3    	movl   $0xc3e08949,(%rdi)
  401b2c:	c3                   	retq   

0000000000401b2d <setval_423>:
  401b2d:	c7 07 89 c2 48 d2    	movl   $0xd248c289,(%rdi)
  401b33:	c3                   	retq   

0000000000401b34 <end_farm>:
  401b34:	b8 01 00 00 00       	mov    $0x1,%eax
  401b39:	c3                   	retq   

0000000000401b3a <save_char>:
  401b3a:	8b 05 c4 45 20 00    	mov    0x2045c4(%rip),%eax        # 606104 <gets_cnt>
  401b40:	3d ff 03 00 00       	cmp    $0x3ff,%eax
  401b45:	7f 4a                	jg     401b91 <save_char+0x57>
  401b47:	89 f9                	mov    %edi,%ecx
  401b49:	c0 e9 04             	shr    $0x4,%cl
  401b4c:	8d 14 40             	lea    (%rax,%rax,2),%edx
  401b4f:	4c 8d 05 da 1a 00 00 	lea    0x1ada(%rip),%r8        # 403630 <trans_char>
  401b56:	83 e1 0f             	and    $0xf,%ecx
  401b59:	45 0f b6 0c 08       	movzbl (%r8,%rcx,1),%r9d
  401b5e:	48 8d 0d 9b 39 20 00 	lea    0x20399b(%rip),%rcx        # 605500 <gets_buf>
  401b65:	48 63 f2             	movslq %edx,%rsi
  401b68:	44 88 0c 31          	mov    %r9b,(%rcx,%rsi,1)
  401b6c:	8d 72 01             	lea    0x1(%rdx),%esi
  401b6f:	83 e7 0f             	and    $0xf,%edi
  401b72:	41 0f b6 3c 38       	movzbl (%r8,%rdi,1),%edi
  401b77:	48 63 f6             	movslq %esi,%rsi
  401b7a:	40 88 3c 31          	mov    %dil,(%rcx,%rsi,1)
  401b7e:	83 c2 02             	add    $0x2,%edx
  401b81:	48 63 d2             	movslq %edx,%rdx
  401b84:	c6 04 11 20          	movb   $0x20,(%rcx,%rdx,1)
  401b88:	83 c0 01             	add    $0x1,%eax
  401b8b:	89 05 73 45 20 00    	mov    %eax,0x204573(%rip)        # 606104 <gets_cnt>
  401b91:	f3 c3                	repz retq 

0000000000401b93 <save_term>:
  401b93:	8b 05 6b 45 20 00    	mov    0x20456b(%rip),%eax        # 606104 <gets_cnt>
  401b99:	8d 04 40             	lea    (%rax,%rax,2),%eax
  401b9c:	48 98                	cltq   
  401b9e:	48 8d 15 5b 39 20 00 	lea    0x20395b(%rip),%rdx        # 605500 <gets_buf>
  401ba5:	c6 04 02 00          	movb   $0x0,(%rdx,%rax,1)
  401ba9:	c3                   	retq   

0000000000401baa <check_fail>:
  401baa:	48 83 ec 08          	sub    $0x8,%rsp
  401bae:	0f be 15 53 45 20 00 	movsbl 0x204553(%rip),%edx        # 606108 <target_prefix>
  401bb5:	4c 8d 05 44 39 20 00 	lea    0x203944(%rip),%r8        # 605500 <gets_buf>
  401bbc:	8b 0d 16 39 20 00    	mov    0x203916(%rip),%ecx        # 6054d8 <check_level>
  401bc2:	48 8d 35 6a 17 00 00 	lea    0x176a(%rip),%rsi        # 403333 <_IO_stdin_used+0x343>
  401bc9:	bf 01 00 00 00       	mov    $0x1,%edi
  401bce:	b8 00 00 00 00       	mov    $0x0,%eax
  401bd3:	e8 b8 f1 ff ff       	callq  400d90 <__printf_chk@plt>
  401bd8:	bf 01 00 00 00       	mov    $0x1,%edi
  401bdd:	e8 ee f1 ff ff       	callq  400dd0 <exit@plt>

0000000000401be2 <Gets>:
  401be2:	41 54                	push   %r12
  401be4:	55                   	push   %rbp
  401be5:	53                   	push   %rbx
  401be6:	49 89 fc             	mov    %rdi,%r12
  401be9:	c7 05 11 45 20 00 00 	movl   $0x0,0x204511(%rip)        # 606104 <gets_cnt>
  401bf0:	00 00 00 
  401bf3:	48 89 fb             	mov    %rdi,%rbx
  401bf6:	eb 11                	jmp    401c09 <Gets+0x27>
  401bf8:	48 8d 6b 01          	lea    0x1(%rbx),%rbp
  401bfc:	88 03                	mov    %al,(%rbx)
  401bfe:	0f b6 f8             	movzbl %al,%edi
  401c01:	e8 34 ff ff ff       	callq  401b3a <save_char>
  401c06:	48 89 eb             	mov    %rbp,%rbx
  401c09:	48 8b 3d c0 38 20 00 	mov    0x2038c0(%rip),%rdi        # 6054d0 <infile>
  401c10:	e8 5b f1 ff ff       	callq  400d70 <_IO_getc@plt>
  401c15:	83 f8 ff             	cmp    $0xffffffff,%eax
  401c18:	74 05                	je     401c1f <Gets+0x3d>
  401c1a:	83 f8 0a             	cmp    $0xa,%eax
  401c1d:	75 d9                	jne    401bf8 <Gets+0x16>
  401c1f:	c6 03 00             	movb   $0x0,(%rbx)
  401c22:	b8 00 00 00 00       	mov    $0x0,%eax
  401c27:	e8 67 ff ff ff       	callq  401b93 <save_term>
  401c2c:	4c 89 e0             	mov    %r12,%rax
  401c2f:	5b                   	pop    %rbx
  401c30:	5d                   	pop    %rbp
  401c31:	41 5c                	pop    %r12
  401c33:	c3                   	retq   

0000000000401c34 <notify_server>:
  401c34:	55                   	push   %rbp
  401c35:	53                   	push   %rbx
  401c36:	48 81 ec 18 40 00 00 	sub    $0x4018,%rsp
  401c3d:	64 48 8b 04 25 28 00 	mov    %fs:0x28,%rax
  401c44:	00 00 
  401c46:	48 89 84 24 08 40 00 	mov    %rax,0x4008(%rsp)
  401c4d:	00 
  401c4e:	31 c0                	xor    %eax,%eax
  401c50:	83 3d 91 38 20 00 00 	cmpl   $0x0,0x203891(%rip)        # 6054e8 <is_checker>
  401c57:	0f 85 d2 00 00 00    	jne    401d2f <notify_server+0xfb>
  401c5d:	89 fb                	mov    %edi,%ebx
  401c5f:	8b 05 9f 44 20 00    	mov    0x20449f(%rip),%eax        # 606104 <gets_cnt>
  401c65:	83 c0 64             	add    $0x64,%eax
  401c68:	3d 00 20 00 00       	cmp    $0x2000,%eax
  401c6d:	0f 8f dd 00 00 00    	jg     401d50 <notify_server+0x11c>
  401c73:	0f be 05 8e 44 20 00 	movsbl 0x20448e(%rip),%eax        # 606108 <target_prefix>
  401c7a:	83 3d cf 34 20 00 00 	cmpl   $0x0,0x2034cf(%rip)        # 605150 <notify>
  401c81:	0f 84 e9 00 00 00    	je     401d70 <notify_server+0x13c>
  401c87:	8b 15 53 38 20 00    	mov    0x203853(%rip),%edx        # 6054e0 <authkey>
  401c8d:	85 db                	test   %ebx,%ebx
  401c8f:	0f 84 e5 00 00 00    	je     401d7a <notify_server+0x146>
  401c95:	48 8d 2d ad 16 00 00 	lea    0x16ad(%rip),%rbp        # 403349 <_IO_stdin_used+0x359>
  401c9c:	48 89 e7             	mov    %rsp,%rdi
  401c9f:	48 8d 0d 5a 38 20 00 	lea    0x20385a(%rip),%rcx        # 605500 <gets_buf>
  401ca6:	51                   	push   %rcx
  401ca7:	56                   	push   %rsi
  401ca8:	50                   	push   %rax
  401ca9:	52                   	push   %rdx
  401caa:	49 89 e9             	mov    %rbp,%r9
  401cad:	44 8b 05 74 34 20 00 	mov    0x203474(%rip),%r8d        # 605128 <target_id>
  401cb4:	48 8d 0d 98 16 00 00 	lea    0x1698(%rip),%rcx        # 403353 <_IO_stdin_used+0x363>
  401cbb:	ba 00 20 00 00       	mov    $0x2000,%edx
  401cc0:	be 01 00 00 00       	mov    $0x1,%esi
  401cc5:	b8 00 00 00 00       	mov    $0x0,%eax
  401cca:	e8 31 f1 ff ff       	callq  400e00 <__sprintf_chk@plt>
  401ccf:	48 83 c4 20          	add    $0x20,%rsp
  401cd3:	83 3d 76 34 20 00 00 	cmpl   $0x0,0x203476(%rip)        # 605150 <notify>
  401cda:	0f 84 df 00 00 00    	je     401dbf <notify_server+0x18b>
  401ce0:	85 db                	test   %ebx,%ebx
  401ce2:	0f 84 c6 00 00 00    	je     401dae <notify_server+0x17a>
  401ce8:	48 89 e1             	mov    %rsp,%rcx
  401ceb:	4c 8d 8c 24 00 20 00 	lea    0x2000(%rsp),%r9
  401cf2:	00 
  401cf3:	41 b8 00 00 00 00    	mov    $0x0,%r8d
  401cf9:	48 8b 15 38 34 20 00 	mov    0x203438(%rip),%rdx        # 605138 <lab>
  401d00:	48 8b 35 39 34 20 00 	mov    0x203439(%rip),%rsi        # 605140 <course>
  401d07:	48 8b 3d 22 34 20 00 	mov    0x203422(%rip),%rdi        # 605130 <user_id>
  401d0e:	e8 91 11 00 00       	callq  402ea4 <driver_post>
  401d13:	85 c0                	test   %eax,%eax
  401d15:	78 6f                	js     401d86 <notify_server+0x152>
  401d17:	48 8d 3d 7a 17 00 00 	lea    0x177a(%rip),%rdi        # 403498 <_IO_stdin_used+0x4a8>
  401d1e:	e8 3d ef ff ff       	callq  400c60 <puts@plt>
  401d23:	48 8d 3d 51 16 00 00 	lea    0x1651(%rip),%rdi        # 40337b <_IO_stdin_used+0x38b>
  401d2a:	e8 31 ef ff ff       	callq  400c60 <puts@plt>
  401d2f:	48 8b 84 24 08 40 00 	mov    0x4008(%rsp),%rax
  401d36:	00 
  401d37:	64 48 33 04 25 28 00 	xor    %fs:0x28,%rax
  401d3e:	00 00 
  401d40:	0f 85 07 01 00 00    	jne    401e4d <notify_server+0x219>
  401d46:	48 81 c4 18 40 00 00 	add    $0x4018,%rsp
  401d4d:	5b                   	pop    %rbx
  401d4e:	5d                   	pop    %rbp
  401d4f:	c3                   	retq   
  401d50:	48 8d 35 11 17 00 00 	lea    0x1711(%rip),%rsi        # 403468 <_IO_stdin_used+0x478>
  401d57:	bf 01 00 00 00       	mov    $0x1,%edi
  401d5c:	b8 00 00 00 00       	mov    $0x0,%eax
  401d61:	e8 2a f0 ff ff       	callq  400d90 <__printf_chk@plt>
  401d66:	bf 01 00 00 00       	mov    $0x1,%edi
  401d6b:	e8 60 f0 ff ff       	callq  400dd0 <exit@plt>
  401d70:	ba ff ff ff ff       	mov    $0xffffffff,%edx
  401d75:	e9 13 ff ff ff       	jmpq   401c8d <notify_server+0x59>
  401d7a:	48 8d 2d cd 15 00 00 	lea    0x15cd(%rip),%rbp        # 40334e <_IO_stdin_used+0x35e>
  401d81:	e9 16 ff ff ff       	jmpq   401c9c <notify_server+0x68>
  401d86:	48 8d 94 24 00 20 00 	lea    0x2000(%rsp),%rdx
  401d8d:	00 
  401d8e:	48 8d 35 da 15 00 00 	lea    0x15da(%rip),%rsi        # 40336f <_IO_stdin_used+0x37f>
  401d95:	bf 01 00 00 00       	mov    $0x1,%edi
  401d9a:	b8 00 00 00 00       	mov    $0x0,%eax
  401d9f:	e8 ec ef ff ff       	callq  400d90 <__printf_chk@plt>
  401da4:	bf 01 00 00 00       	mov    $0x1,%edi
  401da9:	e8 22 f0 ff ff       	callq  400dd0 <exit@plt>
  401dae:	48 8d 3d d0 15 00 00 	lea    0x15d0(%rip),%rdi        # 403385 <_IO_stdin_used+0x395>
  401db5:	e8 a6 ee ff ff       	callq  400c60 <puts@plt>
  401dba:	e9 70 ff ff ff       	jmpq   401d2f <notify_server+0xfb>
  401dbf:	48 89 ea             	mov    %rbp,%rdx
  401dc2:	48 8d 35 07 17 00 00 	lea    0x1707(%rip),%rsi        # 4034d0 <_IO_stdin_used+0x4e0>
  401dc9:	bf 01 00 00 00       	mov    $0x1,%edi
  401dce:	b8 00 00 00 00       	mov    $0x0,%eax
  401dd3:	e8 b8 ef ff ff       	callq  400d90 <__printf_chk@plt>
  401dd8:	48 8b 15 51 33 20 00 	mov    0x203351(%rip),%rdx        # 605130 <user_id>
  401ddf:	48 8d 35 a6 15 00 00 	lea    0x15a6(%rip),%rsi        # 40338c <_IO_stdin_used+0x39c>
  401de6:	bf 01 00 00 00       	mov    $0x1,%edi
  401deb:	b8 00 00 00 00       	mov    $0x0,%eax
  401df0:	e8 9b ef ff ff       	callq  400d90 <__printf_chk@plt>
  401df5:	48 8b 15 44 33 20 00 	mov    0x203344(%rip),%rdx        # 605140 <course>
  401dfc:	48 8d 35 96 15 00 00 	lea    0x1596(%rip),%rsi        # 403399 <_IO_stdin_used+0x3a9>
  401e03:	bf 01 00 00 00       	mov    $0x1,%edi
  401e08:	b8 00 00 00 00       	mov    $0x0,%eax
  401e0d:	e8 7e ef ff ff       	callq  400d90 <__printf_chk@plt>
  401e12:	48 8b 15 1f 33 20 00 	mov    0x20331f(%rip),%rdx        # 605138 <lab>
  401e19:	48 8d 35 85 15 00 00 	lea    0x1585(%rip),%rsi        # 4033a5 <_IO_stdin_used+0x3b5>
  401e20:	bf 01 00 00 00       	mov    $0x1,%edi
  401e25:	b8 00 00 00 00       	mov    $0x0,%eax
  401e2a:	e8 61 ef ff ff       	callq  400d90 <__printf_chk@plt>
  401e2f:	48 89 e2             	mov    %rsp,%rdx
  401e32:	48 8d 35 75 15 00 00 	lea    0x1575(%rip),%rsi        # 4033ae <_IO_stdin_used+0x3be>
  401e39:	bf 01 00 00 00       	mov    $0x1,%edi
  401e3e:	b8 00 00 00 00       	mov    $0x0,%eax
  401e43:	e8 48 ef ff ff       	callq  400d90 <__printf_chk@plt>
  401e48:	e9 e2 fe ff ff       	jmpq   401d2f <notify_server+0xfb>
  401e4d:	e8 2e ee ff ff       	callq  400c80 <__stack_chk_fail@plt>

0000000000401e52 <validate>:
  401e52:	53                   	push   %rbx
  401e53:	89 fb                	mov    %edi,%ebx
  401e55:	83 3d 8c 36 20 00 00 	cmpl   $0x0,0x20368c(%rip)        # 6054e8 <is_checker>
  401e5c:	74 72                	je     401ed0 <validate+0x7e>
  401e5e:	39 3d 78 36 20 00    	cmp    %edi,0x203678(%rip)        # 6054dc <vlevel>
  401e64:	75 32                	jne    401e98 <validate+0x46>
  401e66:	8b 15 6c 36 20 00    	mov    0x20366c(%rip),%edx        # 6054d8 <check_level>
  401e6c:	39 fa                	cmp    %edi,%edx
  401e6e:	75 3e                	jne    401eae <validate+0x5c>
  401e70:	0f be 15 91 42 20 00 	movsbl 0x204291(%rip),%edx        # 606108 <target_prefix>
  401e77:	4c 8d 05 82 36 20 00 	lea    0x203682(%rip),%r8        # 605500 <gets_buf>
  401e7e:	89 f9                	mov    %edi,%ecx
  401e80:	48 8d 35 51 15 00 00 	lea    0x1551(%rip),%rsi        # 4033d8 <_IO_stdin_used+0x3e8>
  401e87:	bf 01 00 00 00       	mov    $0x1,%edi
  401e8c:	b8 00 00 00 00       	mov    $0x0,%eax
  401e91:	e8 fa ee ff ff       	callq  400d90 <__printf_chk@plt>
  401e96:	5b                   	pop    %rbx
  401e97:	c3                   	retq   
  401e98:	48 8d 3d 1b 15 00 00 	lea    0x151b(%rip),%rdi        # 4033ba <_IO_stdin_used+0x3ca>
  401e9f:	e8 bc ed ff ff       	callq  400c60 <puts@plt>
  401ea4:	b8 00 00 00 00       	mov    $0x0,%eax
  401ea9:	e8 fc fc ff ff       	callq  401baa <check_fail>
  401eae:	89 f9                	mov    %edi,%ecx
  401eb0:	48 8d 35 41 16 00 00 	lea    0x1641(%rip),%rsi        # 4034f8 <_IO_stdin_used+0x508>
  401eb7:	bf 01 00 00 00       	mov    $0x1,%edi
  401ebc:	b8 00 00 00 00       	mov    $0x0,%eax
  401ec1:	e8 ca ee ff ff       	callq  400d90 <__printf_chk@plt>
  401ec6:	b8 00 00 00 00       	mov    $0x0,%eax
  401ecb:	e8 da fc ff ff       	callq  401baa <check_fail>
  401ed0:	39 3d 06 36 20 00    	cmp    %edi,0x203606(%rip)        # 6054dc <vlevel>
  401ed6:	74 1a                	je     401ef2 <validate+0xa0>
  401ed8:	48 8d 3d db 14 00 00 	lea    0x14db(%rip),%rdi        # 4033ba <_IO_stdin_used+0x3ca>
  401edf:	e8 7c ed ff ff       	callq  400c60 <puts@plt>
  401ee4:	89 de                	mov    %ebx,%esi
  401ee6:	bf 00 00 00 00       	mov    $0x0,%edi
  401eeb:	e8 44 fd ff ff       	callq  401c34 <notify_server>
  401ef0:	eb a4                	jmp    401e96 <validate+0x44>
  401ef2:	0f be 0d 0f 42 20 00 	movsbl 0x20420f(%rip),%ecx        # 606108 <target_prefix>
  401ef9:	89 fa                	mov    %edi,%edx
  401efb:	48 8d 35 1e 16 00 00 	lea    0x161e(%rip),%rsi        # 403520 <_IO_stdin_used+0x530>
  401f02:	bf 01 00 00 00       	mov    $0x1,%edi
  401f07:	b8 00 00 00 00       	mov    $0x0,%eax
  401f0c:	e8 7f ee ff ff       	callq  400d90 <__printf_chk@plt>
  401f11:	89 de                	mov    %ebx,%esi
  401f13:	bf 01 00 00 00       	mov    $0x1,%edi
  401f18:	e8 17 fd ff ff       	callq  401c34 <notify_server>
  401f1d:	e9 74 ff ff ff       	jmpq   401e96 <validate+0x44>

0000000000401f22 <fail>:
  401f22:	48 83 ec 08          	sub    $0x8,%rsp
  401f26:	83 3d bb 35 20 00 00 	cmpl   $0x0,0x2035bb(%rip)        # 6054e8 <is_checker>
  401f2d:	75 11                	jne    401f40 <fail+0x1e>
  401f2f:	89 fe                	mov    %edi,%esi
  401f31:	bf 00 00 00 00       	mov    $0x0,%edi
  401f36:	e8 f9 fc ff ff       	callq  401c34 <notify_server>
  401f3b:	48 83 c4 08          	add    $0x8,%rsp
  401f3f:	c3                   	retq   
  401f40:	b8 00 00 00 00       	mov    $0x0,%eax
  401f45:	e8 60 fc ff ff       	callq  401baa <check_fail>

0000000000401f4a <bushandler>:
  401f4a:	48 83 ec 08          	sub    $0x8,%rsp
  401f4e:	83 3d 93 35 20 00 00 	cmpl   $0x0,0x203593(%rip)        # 6054e8 <is_checker>
  401f55:	74 16                	je     401f6d <bushandler+0x23>
  401f57:	48 8d 3d 8f 14 00 00 	lea    0x148f(%rip),%rdi        # 4033ed <_IO_stdin_used+0x3fd>
  401f5e:	e8 fd ec ff ff       	callq  400c60 <puts@plt>
  401f63:	b8 00 00 00 00       	mov    $0x0,%eax
  401f68:	e8 3d fc ff ff       	callq  401baa <check_fail>
  401f6d:	48 8d 3d e4 15 00 00 	lea    0x15e4(%rip),%rdi        # 403558 <_IO_stdin_used+0x568>
  401f74:	e8 e7 ec ff ff       	callq  400c60 <puts@plt>
  401f79:	48 8d 3d 77 14 00 00 	lea    0x1477(%rip),%rdi        # 4033f7 <_IO_stdin_used+0x407>
  401f80:	e8 db ec ff ff       	callq  400c60 <puts@plt>
  401f85:	be 00 00 00 00       	mov    $0x0,%esi
  401f8a:	bf 00 00 00 00       	mov    $0x0,%edi
  401f8f:	e8 a0 fc ff ff       	callq  401c34 <notify_server>
  401f94:	bf 01 00 00 00       	mov    $0x1,%edi
  401f99:	e8 32 ee ff ff       	callq  400dd0 <exit@plt>

0000000000401f9e <seghandler>:
  401f9e:	48 83 ec 08          	sub    $0x8,%rsp
  401fa2:	83 3d 3f 35 20 00 00 	cmpl   $0x0,0x20353f(%rip)        # 6054e8 <is_checker>
  401fa9:	74 16                	je     401fc1 <seghandler+0x23>
  401fab:	48 8d 3d 5b 14 00 00 	lea    0x145b(%rip),%rdi        # 40340d <_IO_stdin_used+0x41d>
  401fb2:	e8 a9 ec ff ff       	callq  400c60 <puts@plt>
  401fb7:	b8 00 00 00 00       	mov    $0x0,%eax
  401fbc:	e8 e9 fb ff ff       	callq  401baa <check_fail>
  401fc1:	48 8d 3d b0 15 00 00 	lea    0x15b0(%rip),%rdi        # 403578 <_IO_stdin_used+0x588>
  401fc8:	e8 93 ec ff ff       	callq  400c60 <puts@plt>
  401fcd:	48 8d 3d 23 14 00 00 	lea    0x1423(%rip),%rdi        # 4033f7 <_IO_stdin_used+0x407>
  401fd4:	e8 87 ec ff ff       	callq  400c60 <puts@plt>
  401fd9:	be 00 00 00 00       	mov    $0x0,%esi
  401fde:	bf 00 00 00 00       	mov    $0x0,%edi
  401fe3:	e8 4c fc ff ff       	callq  401c34 <notify_server>
  401fe8:	bf 01 00 00 00       	mov    $0x1,%edi
  401fed:	e8 de ed ff ff       	callq  400dd0 <exit@plt>

0000000000401ff2 <illegalhandler>:
  401ff2:	48 83 ec 08          	sub    $0x8,%rsp
  401ff6:	83 3d eb 34 20 00 00 	cmpl   $0x0,0x2034eb(%rip)        # 6054e8 <is_checker>
  401ffd:	74 16                	je     402015 <illegalhandler+0x23>
  401fff:	48 8d 3d 1a 14 00 00 	lea    0x141a(%rip),%rdi        # 403420 <_IO_stdin_used+0x430>
  402006:	e8 55 ec ff ff       	callq  400c60 <puts@plt>
  40200b:	b8 00 00 00 00       	mov    $0x0,%eax
  402010:	e8 95 fb ff ff       	callq  401baa <check_fail>
  402015:	48 8d 3d 84 15 00 00 	lea    0x1584(%rip),%rdi        # 4035a0 <_IO_stdin_used+0x5b0>
  40201c:	e8 3f ec ff ff       	callq  400c60 <puts@plt>
  402021:	48 8d 3d cf 13 00 00 	lea    0x13cf(%rip),%rdi        # 4033f7 <_IO_stdin_used+0x407>
  402028:	e8 33 ec ff ff       	callq  400c60 <puts@plt>
  40202d:	be 00 00 00 00       	mov    $0x0,%esi
  402032:	bf 00 00 00 00       	mov    $0x0,%edi
  402037:	e8 f8 fb ff ff       	callq  401c34 <notify_server>
  40203c:	bf 01 00 00 00       	mov    $0x1,%edi
  402041:	e8 8a ed ff ff       	callq  400dd0 <exit@plt>

0000000000402046 <sigalrmhandler>:
  402046:	48 83 ec 08          	sub    $0x8,%rsp
  40204a:	83 3d 97 34 20 00 00 	cmpl   $0x0,0x203497(%rip)        # 6054e8 <is_checker>
  402051:	74 16                	je     402069 <sigalrmhandler+0x23>
  402053:	48 8d 3d da 13 00 00 	lea    0x13da(%rip),%rdi        # 403434 <_IO_stdin_used+0x444>
  40205a:	e8 01 ec ff ff       	callq  400c60 <puts@plt>
  40205f:	b8 00 00 00 00       	mov    $0x0,%eax
  402064:	e8 41 fb ff ff       	callq  401baa <check_fail>
  402069:	ba 05 00 00 00       	mov    $0x5,%edx
  40206e:	48 8d 35 5b 15 00 00 	lea    0x155b(%rip),%rsi        # 4035d0 <_IO_stdin_used+0x5e0>
  402075:	bf 01 00 00 00       	mov    $0x1,%edi
  40207a:	b8 00 00 00 00       	mov    $0x0,%eax
  40207f:	e8 0c ed ff ff       	callq  400d90 <__printf_chk@plt>
  402084:	be 00 00 00 00       	mov    $0x0,%esi
  402089:	bf 00 00 00 00       	mov    $0x0,%edi
  40208e:	e8 a1 fb ff ff       	callq  401c34 <notify_server>
  402093:	bf 01 00 00 00       	mov    $0x1,%edi
  402098:	e8 33 ed ff ff       	callq  400dd0 <exit@plt>

000000000040209d <launch>:
  40209d:	55                   	push   %rbp
  40209e:	48 89 e5             	mov    %rsp,%rbp
  4020a1:	48 83 ec 10          	sub    $0x10,%rsp
  4020a5:	48 89 fa             	mov    %rdi,%rdx
  4020a8:	64 48 8b 04 25 28 00 	mov    %fs:0x28,%rax
  4020af:	00 00 
  4020b1:	48 89 45 f8          	mov    %rax,-0x8(%rbp)
  4020b5:	31 c0                	xor    %eax,%eax
  4020b7:	48 8d 47 1e          	lea    0x1e(%rdi),%rax
  4020bb:	48 83 e0 f0          	and    $0xfffffffffffffff0,%rax
  4020bf:	48 29 c4             	sub    %rax,%rsp
  4020c2:	48 8d 7c 24 0f       	lea    0xf(%rsp),%rdi
  4020c7:	48 83 e7 f0          	and    $0xfffffffffffffff0,%rdi
  4020cb:	be f4 00 00 00       	mov    $0xf4,%esi
  4020d0:	e8 cb eb ff ff       	callq  400ca0 <memset@plt>
  4020d5:	48 8b 05 84 30 20 00 	mov    0x203084(%rip),%rax        # 605160 <stdin@@GLIBC_2.2.5>
  4020dc:	48 39 05 ed 33 20 00 	cmp    %rax,0x2033ed(%rip)        # 6054d0 <infile>
  4020e3:	74 3a                	je     40211f <launch+0x82>
  4020e5:	c7 05 ed 33 20 00 00 	movl   $0x0,0x2033ed(%rip)        # 6054dc <vlevel>
  4020ec:	00 00 00 
  4020ef:	b8 00 00 00 00       	mov    $0x0,%eax
  4020f4:	e8 f2 f8 ff ff       	callq  4019eb <test>
  4020f9:	83 3d e8 33 20 00 00 	cmpl   $0x0,0x2033e8(%rip)        # 6054e8 <is_checker>
  402100:	75 35                	jne    402137 <launch+0x9a>
  402102:	48 8d 3d 4b 13 00 00 	lea    0x134b(%rip),%rdi        # 403454 <_IO_stdin_used+0x464>
  402109:	e8 52 eb ff ff       	callq  400c60 <puts@plt>
  40210e:	48 8b 45 f8          	mov    -0x8(%rbp),%rax
  402112:	64 48 33 04 25 28 00 	xor    %fs:0x28,%rax
  402119:	00 00 
  40211b:	75 30                	jne    40214d <launch+0xb0>
  40211d:	c9                   	leaveq 
  40211e:	c3                   	retq   
  40211f:	48 8d 35 16 13 00 00 	lea    0x1316(%rip),%rsi        # 40343c <_IO_stdin_used+0x44c>
  402126:	bf 01 00 00 00       	mov    $0x1,%edi
  40212b:	b8 00 00 00 00       	mov    $0x0,%eax
  402130:	e8 5b ec ff ff       	callq  400d90 <__printf_chk@plt>
  402135:	eb ae                	jmp    4020e5 <launch+0x48>
  402137:	48 8d 3d 0b 13 00 00 	lea    0x130b(%rip),%rdi        # 403449 <_IO_stdin_used+0x459>
  40213e:	e8 1d eb ff ff       	callq  400c60 <puts@plt>
  402143:	b8 00 00 00 00       	mov    $0x0,%eax
  402148:	e8 5d fa ff ff       	callq  401baa <check_fail>
  40214d:	e8 2e eb ff ff       	callq  400c80 <__stack_chk_fail@plt>

0000000000402152 <stable_launch>:
  402152:	53                   	push   %rbx
  402153:	48 89 3d 6e 33 20 00 	mov    %rdi,0x20336e(%rip)        # 6054c8 <global_offset>
  40215a:	41 b9 00 00 00 00    	mov    $0x0,%r9d
  402160:	41 b8 00 00 00 00    	mov    $0x0,%r8d
  402166:	b9 32 01 00 00       	mov    $0x132,%ecx
  40216b:	ba 07 00 00 00       	mov    $0x7,%edx
  402170:	be 00 00 10 00       	mov    $0x100000,%esi
  402175:	bf 00 60 58 55       	mov    $0x55586000,%edi
  40217a:	e8 11 eb ff ff       	callq  400c90 <mmap@plt>
  40217f:	48 89 c3             	mov    %rax,%rbx
  402182:	48 3d 00 60 58 55    	cmp    $0x55586000,%rax
  402188:	75 43                	jne    4021cd <stable_launch+0x7b>
  40218a:	48 8d 90 f8 ff 0f 00 	lea    0xffff8(%rax),%rdx
  402191:	48 89 15 78 3f 20 00 	mov    %rdx,0x203f78(%rip)        # 606110 <stack_top>
  402198:	48 89 e0             	mov    %rsp,%rax
  40219b:	48 89 d4             	mov    %rdx,%rsp
  40219e:	48 89 c2             	mov    %rax,%rdx
  4021a1:	48 89 15 18 33 20 00 	mov    %rdx,0x203318(%rip)        # 6054c0 <global_save_stack>
  4021a8:	48 8b 3d 19 33 20 00 	mov    0x203319(%rip),%rdi        # 6054c8 <global_offset>
  4021af:	e8 e9 fe ff ff       	callq  40209d <launch>
  4021b4:	48 8b 05 05 33 20 00 	mov    0x203305(%rip),%rax        # 6054c0 <global_save_stack>
  4021bb:	48 89 c4             	mov    %rax,%rsp
  4021be:	be 00 00 10 00       	mov    $0x100000,%esi
  4021c3:	48 89 df             	mov    %rbx,%rdi
  4021c6:	e8 b5 eb ff ff       	callq  400d80 <munmap@plt>
  4021cb:	5b                   	pop    %rbx
  4021cc:	c3                   	retq   
  4021cd:	be 00 00 10 00       	mov    $0x100000,%esi
  4021d2:	48 89 c7             	mov    %rax,%rdi
  4021d5:	e8 a6 eb ff ff       	callq  400d80 <munmap@plt>
  4021da:	b9 00 60 58 55       	mov    $0x55586000,%ecx
  4021df:	48 8d 15 22 14 00 00 	lea    0x1422(%rip),%rdx        # 403608 <_IO_stdin_used+0x618>
  4021e6:	be 01 00 00 00       	mov    $0x1,%esi
  4021eb:	48 8b 3d 8e 2f 20 00 	mov    0x202f8e(%rip),%rdi        # 605180 <stderr@@GLIBC_2.2.5>
  4021f2:	b8 00 00 00 00       	mov    $0x0,%eax
  4021f7:	e8 f4 eb ff ff       	callq  400df0 <__fprintf_chk@plt>
  4021fc:	bf 01 00 00 00       	mov    $0x1,%edi
  402201:	e8 ca eb ff ff       	callq  400dd0 <exit@plt>

0000000000402206 <rio_readinitb>:
  402206:	89 37                	mov    %esi,(%rdi)
  402208:	c7 47 04 00 00 00 00 	movl   $0x0,0x4(%rdi)
  40220f:	48 8d 47 10          	lea    0x10(%rdi),%rax
  402213:	48 89 47 08          	mov    %rax,0x8(%rdi)
  402217:	c3                   	retq   

0000000000402218 <sigalrm_handler>:
  402218:	48 83 ec 08          	sub    $0x8,%rsp
  40221c:	b9 00 00 00 00       	mov    $0x0,%ecx
  402221:	48 8d 15 18 14 00 00 	lea    0x1418(%rip),%rdx        # 403640 <trans_char+0x10>
  402228:	be 01 00 00 00       	mov    $0x1,%esi
  40222d:	48 8b 3d 4c 2f 20 00 	mov    0x202f4c(%rip),%rdi        # 605180 <stderr@@GLIBC_2.2.5>
  402234:	b8 00 00 00 00       	mov    $0x0,%eax
  402239:	e8 b2 eb ff ff       	callq  400df0 <__fprintf_chk@plt>
  40223e:	bf 01 00 00 00       	mov    $0x1,%edi
  402243:	e8 88 eb ff ff       	callq  400dd0 <exit@plt>

0000000000402248 <rio_writen>:
  402248:	41 55                	push   %r13
  40224a:	41 54                	push   %r12
  40224c:	55                   	push   %rbp
  40224d:	53                   	push   %rbx
  40224e:	48 83 ec 08          	sub    $0x8,%rsp
  402252:	41 89 fc             	mov    %edi,%r12d
  402255:	48 89 f5             	mov    %rsi,%rbp
  402258:	49 89 d5             	mov    %rdx,%r13
  40225b:	48 89 d3             	mov    %rdx,%rbx
  40225e:	eb 06                	jmp    402266 <rio_writen+0x1e>
  402260:	48 29 c3             	sub    %rax,%rbx
  402263:	48 01 c5             	add    %rax,%rbp
  402266:	48 85 db             	test   %rbx,%rbx
  402269:	74 24                	je     40228f <rio_writen+0x47>
  40226b:	48 89 da             	mov    %rbx,%rdx
  40226e:	48 89 ee             	mov    %rbp,%rsi
  402271:	44 89 e7             	mov    %r12d,%edi
  402274:	e8 f7 e9 ff ff       	callq  400c70 <write@plt>
  402279:	48 85 c0             	test   %rax,%rax
  40227c:	7f e2                	jg     402260 <rio_writen+0x18>
  40227e:	e8 9d e9 ff ff       	callq  400c20 <__errno_location@plt>
  402283:	83 38 04             	cmpl   $0x4,(%rax)
  402286:	75 15                	jne    40229d <rio_writen+0x55>
  402288:	b8 00 00 00 00       	mov    $0x0,%eax
  40228d:	eb d1                	jmp    402260 <rio_writen+0x18>
  40228f:	4c 89 e8             	mov    %r13,%rax
  402292:	48 83 c4 08          	add    $0x8,%rsp
  402296:	5b                   	pop    %rbx
  402297:	5d                   	pop    %rbp
  402298:	41 5c                	pop    %r12
  40229a:	41 5d                	pop    %r13
  40229c:	c3                   	retq   
  40229d:	48 c7 c0 ff ff ff ff 	mov    $0xffffffffffffffff,%rax
  4022a4:	eb ec                	jmp    402292 <rio_writen+0x4a>

00000000004022a6 <rio_read>:
  4022a6:	41 55                	push   %r13
  4022a8:	41 54                	push   %r12
  4022aa:	55                   	push   %rbp
  4022ab:	53                   	push   %rbx
  4022ac:	48 83 ec 08          	sub    $0x8,%rsp
  4022b0:	48 89 fb             	mov    %rdi,%rbx
  4022b3:	49 89 f5             	mov    %rsi,%r13
  4022b6:	49 89 d4             	mov    %rdx,%r12
  4022b9:	eb 0a                	jmp    4022c5 <rio_read+0x1f>
  4022bb:	e8 60 e9 ff ff       	callq  400c20 <__errno_location@plt>
  4022c0:	83 38 04             	cmpl   $0x4,(%rax)
  4022c3:	75 5c                	jne    402321 <rio_read+0x7b>
  4022c5:	8b 6b 04             	mov    0x4(%rbx),%ebp
  4022c8:	85 ed                	test   %ebp,%ebp
  4022ca:	7f 24                	jg     4022f0 <rio_read+0x4a>
  4022cc:	48 8d 6b 10          	lea    0x10(%rbx),%rbp
  4022d0:	8b 3b                	mov    (%rbx),%edi
  4022d2:	ba 00 20 00 00       	mov    $0x2000,%edx
  4022d7:	48 89 ee             	mov    %rbp,%rsi
  4022da:	e8 f1 e9 ff ff       	callq  400cd0 <read@plt>
  4022df:	89 43 04             	mov    %eax,0x4(%rbx)
  4022e2:	85 c0                	test   %eax,%eax
  4022e4:	78 d5                	js     4022bb <rio_read+0x15>
  4022e6:	85 c0                	test   %eax,%eax
  4022e8:	74 40                	je     40232a <rio_read+0x84>
  4022ea:	48 89 6b 08          	mov    %rbp,0x8(%rbx)
  4022ee:	eb d5                	jmp    4022c5 <rio_read+0x1f>
  4022f0:	89 e8                	mov    %ebp,%eax
  4022f2:	4c 39 e0             	cmp    %r12,%rax
  4022f5:	72 03                	jb     4022fa <rio_read+0x54>
  4022f7:	44 89 e5             	mov    %r12d,%ebp
  4022fa:	4c 63 e5             	movslq %ebp,%r12
  4022fd:	48 8b 73 08          	mov    0x8(%rbx),%rsi
  402301:	4c 89 e2             	mov    %r12,%rdx
  402304:	4c 89 ef             	mov    %r13,%rdi
  402307:	e8 24 ea ff ff       	callq  400d30 <memcpy@plt>
  40230c:	4c 01 63 08          	add    %r12,0x8(%rbx)
  402310:	29 6b 04             	sub    %ebp,0x4(%rbx)
  402313:	4c 89 e0             	mov    %r12,%rax
  402316:	48 83 c4 08          	add    $0x8,%rsp
  40231a:	5b                   	pop    %rbx
  40231b:	5d                   	pop    %rbp
  40231c:	41 5c                	pop    %r12
  40231e:	41 5d                	pop    %r13
  402320:	c3                   	retq   
  402321:	48 c7 c0 ff ff ff ff 	mov    $0xffffffffffffffff,%rax
  402328:	eb ec                	jmp    402316 <rio_read+0x70>
  40232a:	b8 00 00 00 00       	mov    $0x0,%eax
  40232f:	eb e5                	jmp    402316 <rio_read+0x70>

0000000000402331 <rio_readlineb>:
  402331:	41 55                	push   %r13
  402333:	41 54                	push   %r12
  402335:	55                   	push   %rbp
  402336:	53                   	push   %rbx
  402337:	48 83 ec 18          	sub    $0x18,%rsp
  40233b:	49 89 fd             	mov    %rdi,%r13
  40233e:	48 89 f5             	mov    %rsi,%rbp
  402341:	49 89 d4             	mov    %rdx,%r12
  402344:	64 48 8b 04 25 28 00 	mov    %fs:0x28,%rax
  40234b:	00 00 
  40234d:	48 89 44 24 08       	mov    %rax,0x8(%rsp)
  402352:	31 c0                	xor    %eax,%eax
  402354:	bb 01 00 00 00       	mov    $0x1,%ebx
  402359:	4c 39 e3             	cmp    %r12,%rbx
  40235c:	73 47                	jae    4023a5 <rio_readlineb+0x74>
  40235e:	48 8d 74 24 07       	lea    0x7(%rsp),%rsi
  402363:	ba 01 00 00 00       	mov    $0x1,%edx
  402368:	4c 89 ef             	mov    %r13,%rdi
  40236b:	e8 36 ff ff ff       	callq  4022a6 <rio_read>
  402370:	83 f8 01             	cmp    $0x1,%eax
  402373:	75 1c                	jne    402391 <rio_readlineb+0x60>
  402375:	48 8d 45 01          	lea    0x1(%rbp),%rax
  402379:	0f b6 54 24 07       	movzbl 0x7(%rsp),%edx
  40237e:	88 55 00             	mov    %dl,0x0(%rbp)
  402381:	80 7c 24 07 0a       	cmpb   $0xa,0x7(%rsp)
  402386:	74 1a                	je     4023a2 <rio_readlineb+0x71>
  402388:	48 83 c3 01          	add    $0x1,%rbx
  40238c:	48 89 c5             	mov    %rax,%rbp
  40238f:	eb c8                	jmp    402359 <rio_readlineb+0x28>
  402391:	85 c0                	test   %eax,%eax
  402393:	75 32                	jne    4023c7 <rio_readlineb+0x96>
  402395:	48 83 fb 01          	cmp    $0x1,%rbx
  402399:	75 0a                	jne    4023a5 <rio_readlineb+0x74>
  40239b:	b8 00 00 00 00       	mov    $0x0,%eax
  4023a0:	eb 0a                	jmp    4023ac <rio_readlineb+0x7b>
  4023a2:	48 89 c5             	mov    %rax,%rbp
  4023a5:	c6 45 00 00          	movb   $0x0,0x0(%rbp)
  4023a9:	48 89 d8             	mov    %rbx,%rax
  4023ac:	48 8b 4c 24 08       	mov    0x8(%rsp),%rcx
  4023b1:	64 48 33 0c 25 28 00 	xor    %fs:0x28,%rcx
  4023b8:	00 00 
  4023ba:	75 14                	jne    4023d0 <rio_readlineb+0x9f>
  4023bc:	48 83 c4 18          	add    $0x18,%rsp
  4023c0:	5b                   	pop    %rbx
  4023c1:	5d                   	pop    %rbp
  4023c2:	41 5c                	pop    %r12
  4023c4:	41 5d                	pop    %r13
  4023c6:	c3                   	retq   
  4023c7:	48 c7 c0 ff ff ff ff 	mov    $0xffffffffffffffff,%rax
  4023ce:	eb dc                	jmp    4023ac <rio_readlineb+0x7b>
  4023d0:	e8 ab e8 ff ff       	callq  400c80 <__stack_chk_fail@plt>

00000000004023d5 <urlencode>:
  4023d5:	41 54                	push   %r12
  4023d7:	55                   	push   %rbp
  4023d8:	53                   	push   %rbx
  4023d9:	48 83 ec 10          	sub    $0x10,%rsp
  4023dd:	48 89 fb             	mov    %rdi,%rbx
  4023e0:	48 89 f5             	mov    %rsi,%rbp
  4023e3:	64 48 8b 04 25 28 00 	mov    %fs:0x28,%rax
  4023ea:	00 00 
  4023ec:	48 89 44 24 08       	mov    %rax,0x8(%rsp)
  4023f1:	31 c0                	xor    %eax,%eax
  4023f3:	48 c7 c1 ff ff ff ff 	mov    $0xffffffffffffffff,%rcx
  4023fa:	f2 ae                	repnz scas %es:(%rdi),%al
  4023fc:	48 89 ce             	mov    %rcx,%rsi
  4023ff:	48 f7 d6             	not    %rsi
  402402:	8d 46 ff             	lea    -0x1(%rsi),%eax
  402405:	eb 0f                	jmp    402416 <urlencode+0x41>
  402407:	44 88 45 00          	mov    %r8b,0x0(%rbp)
  40240b:	48 8d 6d 01          	lea    0x1(%rbp),%rbp
  40240f:	48 83 c3 01          	add    $0x1,%rbx
  402413:	44 89 e0             	mov    %r12d,%eax
  402416:	44 8d 60 ff          	lea    -0x1(%rax),%r12d
  40241a:	85 c0                	test   %eax,%eax
  40241c:	0f 84 a8 00 00 00    	je     4024ca <urlencode+0xf5>
  402422:	44 0f b6 03          	movzbl (%rbx),%r8d
  402426:	41 80 f8 2a          	cmp    $0x2a,%r8b
  40242a:	0f 94 c2             	sete   %dl
  40242d:	41 80 f8 2d          	cmp    $0x2d,%r8b
  402431:	0f 94 c0             	sete   %al
  402434:	08 c2                	or     %al,%dl
  402436:	75 cf                	jne    402407 <urlencode+0x32>
  402438:	41 80 f8 2e          	cmp    $0x2e,%r8b
  40243c:	74 c9                	je     402407 <urlencode+0x32>
  40243e:	41 80 f8 5f          	cmp    $0x5f,%r8b
  402442:	74 c3                	je     402407 <urlencode+0x32>
  402444:	41 8d 40 d0          	lea    -0x30(%r8),%eax
  402448:	3c 09                	cmp    $0x9,%al
  40244a:	76 bb                	jbe    402407 <urlencode+0x32>
  40244c:	41 8d 40 bf          	lea    -0x41(%r8),%eax
  402450:	3c 19                	cmp    $0x19,%al
  402452:	76 b3                	jbe    402407 <urlencode+0x32>
  402454:	41 8d 40 9f          	lea    -0x61(%r8),%eax
  402458:	3c 19                	cmp    $0x19,%al
  40245a:	76 ab                	jbe    402407 <urlencode+0x32>
  40245c:	41 80 f8 20          	cmp    $0x20,%r8b
  402460:	74 56                	je     4024b8 <urlencode+0xe3>
  402462:	41 8d 40 e0          	lea    -0x20(%r8),%eax
  402466:	3c 5f                	cmp    $0x5f,%al
  402468:	0f 96 c2             	setbe  %dl
  40246b:	41 80 f8 09          	cmp    $0x9,%r8b
  40246f:	0f 94 c0             	sete   %al
  402472:	08 c2                	or     %al,%dl
  402474:	74 4f                	je     4024c5 <urlencode+0xf0>
  402476:	48 89 e7             	mov    %rsp,%rdi
  402479:	45 0f b6 c0          	movzbl %r8b,%r8d
  40247d:	48 8d 0d 54 12 00 00 	lea    0x1254(%rip),%rcx        # 4036d8 <trans_char+0xa8>
  402484:	ba 08 00 00 00       	mov    $0x8,%edx
  402489:	be 01 00 00 00       	mov    $0x1,%esi
  40248e:	b8 00 00 00 00       	mov    $0x0,%eax
  402493:	e8 68 e9 ff ff       	callq  400e00 <__sprintf_chk@plt>
  402498:	0f b6 04 24          	movzbl (%rsp),%eax
  40249c:	88 45 00             	mov    %al,0x0(%rbp)
  40249f:	0f b6 44 24 01       	movzbl 0x1(%rsp),%eax
  4024a4:	88 45 01             	mov    %al,0x1(%rbp)
  4024a7:	0f b6 44 24 02       	movzbl 0x2(%rsp),%eax
  4024ac:	88 45 02             	mov    %al,0x2(%rbp)
  4024af:	48 8d 6d 03          	lea    0x3(%rbp),%rbp
  4024b3:	e9 57 ff ff ff       	jmpq   40240f <urlencode+0x3a>
  4024b8:	c6 45 00 2b          	movb   $0x2b,0x0(%rbp)
  4024bc:	48 8d 6d 01          	lea    0x1(%rbp),%rbp
  4024c0:	e9 4a ff ff ff       	jmpq   40240f <urlencode+0x3a>
  4024c5:	b8 ff ff ff ff       	mov    $0xffffffff,%eax
  4024ca:	48 8b 74 24 08       	mov    0x8(%rsp),%rsi
  4024cf:	64 48 33 34 25 28 00 	xor    %fs:0x28,%rsi
  4024d6:	00 00 
  4024d8:	75 09                	jne    4024e3 <urlencode+0x10e>
  4024da:	48 83 c4 10          	add    $0x10,%rsp
  4024de:	5b                   	pop    %rbx
  4024df:	5d                   	pop    %rbp
  4024e0:	41 5c                	pop    %r12
  4024e2:	c3                   	retq   
  4024e3:	e8 98 e7 ff ff       	callq  400c80 <__stack_chk_fail@plt>

00000000004024e8 <submitr>:
  4024e8:	41 57                	push   %r15
  4024ea:	41 56                	push   %r14
  4024ec:	41 55                	push   %r13
  4024ee:	41 54                	push   %r12
  4024f0:	55                   	push   %rbp
  4024f1:	53                   	push   %rbx
  4024f2:	48 81 ec 58 a0 00 00 	sub    $0xa058,%rsp
  4024f9:	48 89 7c 24 08       	mov    %rdi,0x8(%rsp)
  4024fe:	41 89 f4             	mov    %esi,%r12d
  402501:	49 89 d7             	mov    %rdx,%r15
  402504:	49 89 ce             	mov    %rcx,%r14
  402507:	4c 89 04 24          	mov    %r8,(%rsp)
  40250b:	4d 89 cd             	mov    %r9,%r13
  40250e:	48 8b ac 24 90 a0 00 	mov    0xa090(%rsp),%rbp
  402515:	00 
  402516:	64 48 8b 04 25 28 00 	mov    %fs:0x28,%rax
  40251d:	00 00 
  40251f:	48 89 84 24 48 a0 00 	mov    %rax,0xa048(%rsp)
  402526:	00 
  402527:	31 c0                	xor    %eax,%eax
  402529:	ba 00 00 00 00       	mov    $0x0,%edx
  40252e:	be 01 00 00 00       	mov    $0x1,%esi
  402533:	bf 02 00 00 00       	mov    $0x2,%edi
  402538:	e8 d3 e8 ff ff       	callq  400e10 <socket@plt>
  40253d:	85 c0                	test   %eax,%eax
  40253f:	0f 88 ff 02 00 00    	js     402844 <submitr+0x35c>
  402545:	89 c3                	mov    %eax,%ebx
  402547:	66 c7 44 24 10 02 00 	movw   $0x2,0x10(%rsp)
  40254e:	66 41 c1 cc 08       	ror    $0x8,%r12w
  402553:	66 44 89 64 24 12    	mov    %r12w,0x12(%rsp)
  402559:	4c 8d 64 24 10       	lea    0x10(%rsp),%r12
  40255e:	48 8d 74 24 14       	lea    0x14(%rsp),%rsi
  402563:	48 8d 3d 75 11 00 00 	lea    0x1175(%rip),%rdi        # 4036df <trans_char+0xaf>
  40256a:	b8 00 00 00 00       	mov    $0x0,%eax
  40256f:	e8 dc e7 ff ff       	callq  400d50 <inet_aton@plt>
  402574:	ba 10 00 00 00       	mov    $0x10,%edx
  402579:	4c 89 e6             	mov    %r12,%rsi
  40257c:	89 df                	mov    %ebx,%edi
  40257e:	e8 5d e8 ff ff       	callq  400de0 <connect@plt>
  402583:	85 c0                	test   %eax,%eax
  402585:	0f 88 05 03 00 00    	js     402890 <submitr+0x3a8>
  40258b:	48 c7 c6 ff ff ff ff 	mov    $0xffffffffffffffff,%rsi
  402592:	b8 00 00 00 00       	mov    $0x0,%eax
  402597:	48 89 f1             	mov    %rsi,%rcx
  40259a:	4c 89 ef             	mov    %r13,%rdi
  40259d:	f2 ae                	repnz scas %es:(%rdi),%al
  40259f:	48 89 ca             	mov    %rcx,%rdx
  4025a2:	48 f7 d2             	not    %rdx
  4025a5:	48 89 f1             	mov    %rsi,%rcx
  4025a8:	4c 89 ff             	mov    %r15,%rdi
  4025ab:	f2 ae                	repnz scas %es:(%rdi),%al
  4025ad:	48 f7 d1             	not    %rcx
  4025b0:	49 89 c8             	mov    %rcx,%r8
  4025b3:	48 89 f1             	mov    %rsi,%rcx
  4025b6:	4c 89 f7             	mov    %r14,%rdi
  4025b9:	f2 ae                	repnz scas %es:(%rdi),%al
  4025bb:	48 f7 d1             	not    %rcx
  4025be:	4d 8d 44 08 fe       	lea    -0x2(%r8,%rcx,1),%r8
  4025c3:	48 89 f1             	mov    %rsi,%rcx
  4025c6:	48 8b 3c 24          	mov    (%rsp),%rdi
  4025ca:	f2 ae                	repnz scas %es:(%rdi),%al
  4025cc:	48 89 c8             	mov    %rcx,%rax
  4025cf:	48 f7 d0             	not    %rax
  4025d2:	49 8d 4c 00 ff       	lea    -0x1(%r8,%rax,1),%rcx
  4025d7:	48 8d 44 52 fd       	lea    -0x3(%rdx,%rdx,2),%rax
  4025dc:	48 8d 84 01 80 00 00 	lea    0x80(%rcx,%rax,1),%rax
  4025e3:	00 
  4025e4:	48 3d 00 20 00 00    	cmp    $0x2000,%rax
  4025ea:	0f 87 fa 02 00 00    	ja     4028ea <submitr+0x402>
  4025f0:	48 8d b4 24 40 40 00 	lea    0x4040(%rsp),%rsi
  4025f7:	00 
  4025f8:	b9 00 04 00 00       	mov    $0x400,%ecx
  4025fd:	b8 00 00 00 00       	mov    $0x0,%eax
  402602:	48 89 f7             	mov    %rsi,%rdi
  402605:	f3 48 ab             	rep stos %rax,%es:(%rdi)
  402608:	4c 89 ef             	mov    %r13,%rdi
  40260b:	e8 c5 fd ff ff       	callq  4023d5 <urlencode>
  402610:	85 c0                	test   %eax,%eax
  402612:	0f 88 45 03 00 00    	js     40295d <submitr+0x475>
  402618:	4c 8d a4 24 40 20 00 	lea    0x2040(%rsp),%r12
  40261f:	00 
  402620:	ff 74 24 08          	pushq  0x8(%rsp)
  402624:	48 8d 84 24 48 40 00 	lea    0x4048(%rsp),%rax
  40262b:	00 
  40262c:	50                   	push   %rax
  40262d:	4d 89 f9             	mov    %r15,%r9
  402630:	4d 89 f0             	mov    %r14,%r8
  402633:	48 8d 0d 2e 10 00 00 	lea    0x102e(%rip),%rcx        # 403668 <trans_char+0x38>
  40263a:	ba 00 20 00 00       	mov    $0x2000,%edx
  40263f:	be 01 00 00 00       	mov    $0x1,%esi
  402644:	4c 89 e7             	mov    %r12,%rdi
  402647:	b8 00 00 00 00       	mov    $0x0,%eax
  40264c:	e8 af e7 ff ff       	callq  400e00 <__sprintf_chk@plt>
  402651:	48 c7 c1 ff ff ff ff 	mov    $0xffffffffffffffff,%rcx
  402658:	b8 00 00 00 00       	mov    $0x0,%eax
  40265d:	4c 89 e7             	mov    %r12,%rdi
  402660:	f2 ae                	repnz scas %es:(%rdi),%al
  402662:	48 89 ca             	mov    %rcx,%rdx
  402665:	48 f7 d2             	not    %rdx
  402668:	48 8d 52 ff          	lea    -0x1(%rdx),%rdx
  40266c:	4c 89 e6             	mov    %r12,%rsi
  40266f:	89 df                	mov    %ebx,%edi
  402671:	e8 d2 fb ff ff       	callq  402248 <rio_writen>
  402676:	48 83 c4 10          	add    $0x10,%rsp
  40267a:	48 85 c0             	test   %rax,%rax
  40267d:	0f 88 65 03 00 00    	js     4029e8 <submitr+0x500>
  402683:	4c 8d 64 24 20       	lea    0x20(%rsp),%r12
  402688:	89 de                	mov    %ebx,%esi
  40268a:	4c 89 e7             	mov    %r12,%rdi
  40268d:	e8 74 fb ff ff       	callq  402206 <rio_readinitb>
  402692:	48 8d b4 24 40 20 00 	lea    0x2040(%rsp),%rsi
  402699:	00 
  40269a:	ba 00 20 00 00       	mov    $0x2000,%edx
  40269f:	4c 89 e7             	mov    %r12,%rdi
  4026a2:	e8 8a fc ff ff       	callq  402331 <rio_readlineb>
  4026a7:	48 85 c0             	test   %rax,%rax
  4026aa:	0f 8e a7 03 00 00    	jle    402a57 <submitr+0x56f>
  4026b0:	48 8d 94 24 40 60 00 	lea    0x6040(%rsp),%rdx
  4026b7:	00 
  4026b8:	41 be 00 00 00 00    	mov    $0x0,%r14d
  4026be:	b9 00 04 00 00       	mov    $0x400,%ecx
  4026c3:	48 89 d7             	mov    %rdx,%rdi
  4026c6:	4c 89 f0             	mov    %r14,%rax
  4026c9:	f3 48 ab             	rep stos %rax,%es:(%rdi)
  4026cc:	48 8b 84 24 40 20 00 	mov    0x2040(%rsp),%rax
  4026d3:	00 
  4026d4:	48 89 84 24 40 60 00 	mov    %rax,0x6040(%rsp)
  4026db:	00 
  4026dc:	c6 84 24 3f 20 00 00 	movb   $0x0,0x203f(%rsp)
  4026e3:	00 
  4026e4:	48 8d bc 24 3c 20 00 	lea    0x203c(%rsp),%rdi
  4026eb:	00 
  4026ec:	4c 8d ac 24 40 20 00 	lea    0x2040(%rsp),%r13
  4026f3:	00 
  4026f4:	0f b7 84 24 49 20 00 	movzwl 0x2049(%rsp),%eax
  4026fb:	00 
  4026fc:	66 89 84 24 3c 20 00 	mov    %ax,0x203c(%rsp)
  402703:	00 
  402704:	0f b6 84 24 4b 20 00 	movzbl 0x204b(%rsp),%eax
  40270b:	00 
  40270c:	88 84 24 3e 20 00 00 	mov    %al,0x203e(%rsp)
  402713:	ba 0a 00 00 00       	mov    $0xa,%edx
  402718:	be 00 00 00 00       	mov    $0x0,%esi
  40271d:	e8 fe e5 ff ff       	callq  400d20 <strtol@plt>
  402722:	49 89 c4             	mov    %rax,%r12
  402725:	4c 8d 84 24 40 80 00 	lea    0x8040(%rsp),%r8
  40272c:	00 
  40272d:	b9 00 04 00 00       	mov    $0x400,%ecx
  402732:	4c 89 c7             	mov    %r8,%rdi
  402735:	4c 89 f0             	mov    %r14,%rax
  402738:	f3 48 ab             	rep stos %rax,%es:(%rdi)
  40273b:	48 8d bc 24 33 20 00 	lea    0x2033(%rsp),%rdi
  402742:	00 
  402743:	48 c7 c1 ff ff ff ff 	mov    $0xffffffffffffffff,%rcx
  40274a:	f2 ae                	repnz scas %es:(%rdi),%al
  40274c:	48 89 ca             	mov    %rcx,%rdx
  40274f:	48 f7 d2             	not    %rdx
  402752:	48 8d 52 ff          	lea    -0x1(%rdx),%rdx
  402756:	49 8d 75 0d          	lea    0xd(%r13),%rsi
  40275a:	b9 00 20 00 00       	mov    $0x2000,%ecx
  40275f:	4c 89 c7             	mov    %r8,%rdi
  402762:	e8 a9 e5 ff ff       	callq  400d10 <__memcpy_chk@plt>
  402767:	48 8d b4 24 40 20 00 	lea    0x2040(%rsp),%rsi
  40276e:	00 
  40276f:	b9 03 00 00 00       	mov    $0x3,%ecx
  402774:	48 8d 3d 78 0f 00 00 	lea    0xf78(%rip),%rdi        # 4036f3 <trans_char+0xc3>
  40277b:	f3 a6                	repz cmpsb %es:(%rdi),%ds:(%rsi)
  40277d:	0f 97 c0             	seta   %al
  402780:	1c 00                	sbb    $0x0,%al
  402782:	84 c0                	test   %al,%al
  402784:	0f 84 4b 03 00 00    	je     402ad5 <submitr+0x5ed>
  40278a:	48 8d b4 24 40 20 00 	lea    0x2040(%rsp),%rsi
  402791:	00 
  402792:	48 8d 7c 24 20       	lea    0x20(%rsp),%rdi
  402797:	ba 00 20 00 00       	mov    $0x2000,%edx
  40279c:	e8 90 fb ff ff       	callq  402331 <rio_readlineb>
  4027a1:	48 85 c0             	test   %rax,%rax
  4027a4:	7f c1                	jg     402767 <submitr+0x27f>
  4027a6:	48 b8 45 72 72 6f 72 	movabs $0x43203a726f727245,%rax
  4027ad:	3a 20 43 
  4027b0:	48 ba 6c 69 65 6e 74 	movabs $0x6e7520746e65696c,%rdx
  4027b7:	20 75 6e 
  4027ba:	48 89 45 00          	mov    %rax,0x0(%rbp)
  4027be:	48 89 55 08          	mov    %rdx,0x8(%rbp)
  4027c2:	48 b8 61 62 6c 65 20 	movabs $0x206f7420656c6261,%rax
  4027c9:	74 6f 20 
  4027cc:	48 ba 72 65 61 64 20 	movabs $0x6165682064616572,%rdx
  4027d3:	68 65 61 
  4027d6:	48 89 45 10          	mov    %rax,0x10(%rbp)
  4027da:	48 89 55 18          	mov    %rdx,0x18(%rbp)
  4027de:	48 b8 64 65 72 73 20 	movabs $0x6f72662073726564,%rax
  4027e5:	66 72 6f 
  4027e8:	48 ba 6d 20 74 68 65 	movabs $0x657220656874206d,%rdx
  4027ef:	20 72 65 
  4027f2:	48 89 45 20          	mov    %rax,0x20(%rbp)
  4027f6:	48 89 55 28          	mov    %rdx,0x28(%rbp)
  4027fa:	48 b8 73 75 6c 74 20 	movabs $0x72657320746c7573,%rax
  402801:	73 65 72 
  402804:	48 89 45 30          	mov    %rax,0x30(%rbp)
  402808:	c7 45 38 76 65 72 00 	movl   $0x726576,0x38(%rbp)
  40280f:	89 df                	mov    %ebx,%edi
  402811:	e8 aa e4 ff ff       	callq  400cc0 <close@plt>
  402816:	b8 ff ff ff ff       	mov    $0xffffffff,%eax
  40281b:	48 8b 9c 24 48 a0 00 	mov    0xa048(%rsp),%rbx
  402822:	00 
  402823:	64 48 33 1c 25 28 00 	xor    %fs:0x28,%rbx
  40282a:	00 00 
  40282c:	0f 85 14 04 00 00    	jne    402c46 <submitr+0x75e>
  402832:	48 81 c4 58 a0 00 00 	add    $0xa058,%rsp
  402839:	5b                   	pop    %rbx
  40283a:	5d                   	pop    %rbp
  40283b:	41 5c                	pop    %r12
  40283d:	41 5d                	pop    %r13
  40283f:	41 5e                	pop    %r14
  402841:	41 5f                	pop    %r15
  402843:	c3                   	retq   
  402844:	48 b8 45 72 72 6f 72 	movabs $0x43203a726f727245,%rax
  40284b:	3a 20 43 
  40284e:	48 ba 6c 69 65 6e 74 	movabs $0x6e7520746e65696c,%rdx
  402855:	20 75 6e 
  402858:	48 89 45 00          	mov    %rax,0x0(%rbp)
  40285c:	48 89 55 08          	mov    %rdx,0x8(%rbp)
  402860:	48 b8 61 62 6c 65 20 	movabs $0x206f7420656c6261,%rax
  402867:	74 6f 20 
  40286a:	48 ba 63 72 65 61 74 	movabs $0x7320657461657263,%rdx
  402871:	65 20 73 
  402874:	48 89 45 10          	mov    %rax,0x10(%rbp)
  402878:	48 89 55 18          	mov    %rdx,0x18(%rbp)
  40287c:	c7 45 20 6f 63 6b 65 	movl   $0x656b636f,0x20(%rbp)
  402883:	66 c7 45 24 74 00    	movw   $0x74,0x24(%rbp)
  402889:	b8 ff ff ff ff       	mov    $0xffffffff,%eax
  40288e:	eb 8b                	jmp    40281b <submitr+0x333>
  402890:	48 b8 45 72 72 6f 72 	movabs $0x55203a726f727245,%rax
  402897:	3a 20 55 
  40289a:	48 ba 6e 61 62 6c 65 	movabs $0x6f7420656c62616e,%rdx
  4028a1:	20 74 6f 
  4028a4:	48 89 45 00          	mov    %rax,0x0(%rbp)
  4028a8:	48 89 55 08          	mov    %rdx,0x8(%rbp)
  4028ac:	48 b8 20 63 6f 6e 6e 	movabs $0x7463656e6e6f6320,%rax
  4028b3:	65 63 74 
  4028b6:	48 ba 20 74 6f 20 74 	movabs $0x20656874206f7420,%rdx
  4028bd:	68 65 20 
  4028c0:	48 89 45 10          	mov    %rax,0x10(%rbp)
  4028c4:	48 89 55 18          	mov    %rdx,0x18(%rbp)
  4028c8:	c7 45 20 73 65 72 76 	movl   $0x76726573,0x20(%rbp)
  4028cf:	66 c7 45 24 65 72    	movw   $0x7265,0x24(%rbp)
  4028d5:	c6 45 26 00          	movb   $0x0,0x26(%rbp)
  4028d9:	89 df                	mov    %ebx,%edi
  4028db:	e8 e0 e3 ff ff       	callq  400cc0 <close@plt>
  4028e0:	b8 ff ff ff ff       	mov    $0xffffffff,%eax
  4028e5:	e9 31 ff ff ff       	jmpq   40281b <submitr+0x333>
  4028ea:	48 b8 45 72 72 6f 72 	movabs $0x52203a726f727245,%rax
  4028f1:	3a 20 52 
  4028f4:	48 ba 65 73 75 6c 74 	movabs $0x747320746c757365,%rdx
  4028fb:	20 73 74 
  4028fe:	48 89 45 00          	mov    %rax,0x0(%rbp)
  402902:	48 89 55 08          	mov    %rdx,0x8(%rbp)
  402906:	48 b8 72 69 6e 67 20 	movabs $0x6f6f7420676e6972,%rax
  40290d:	74 6f 6f 
  402910:	48 ba 20 6c 61 72 67 	movabs $0x202e656772616c20,%rdx
  402917:	65 2e 20 
  40291a:	48 89 45 10          	mov    %rax,0x10(%rbp)
  40291e:	48 89 55 18          	mov    %rdx,0x18(%rbp)
  402922:	48 b8 49 6e 63 72 65 	movabs $0x6573616572636e49,%rax
  402929:	61 73 65 
  40292c:	48 ba 20 53 55 42 4d 	movabs $0x5254494d42555320,%rdx
  402933:	49 54 52 
  402936:	48 89 45 20          	mov    %rax,0x20(%rbp)
  40293a:	48 89 55 28          	mov    %rdx,0x28(%rbp)
  40293e:	48 b8 5f 4d 41 58 42 	movabs $0x46554258414d5f,%rax
  402945:	55 46 00 
  402948:	48 89 45 30          	mov    %rax,0x30(%rbp)
  40294c:	89 df                	mov    %ebx,%edi
  40294e:	e8 6d e3 ff ff       	callq  400cc0 <close@plt>
  402953:	b8 ff ff ff ff       	mov    $0xffffffff,%eax
  402958:	e9 be fe ff ff       	jmpq   40281b <submitr+0x333>
  40295d:	48 b8 45 72 72 6f 72 	movabs $0x52203a726f727245,%rax
  402964:	3a 20 52 
  402967:	48 ba 65 73 75 6c 74 	movabs $0x747320746c757365,%rdx
  40296e:	20 73 74 
  402971:	48 89 45 00          	mov    %rax,0x0(%rbp)
  402975:	48 89 55 08          	mov    %rdx,0x8(%rbp)
  402979:	48 b8 72 69 6e 67 20 	movabs $0x6e6f6320676e6972,%rax
  402980:	63 6f 6e 
  402983:	48 ba 74 61 69 6e 73 	movabs $0x6e6120736e696174,%rdx
  40298a:	20 61 6e 
  40298d:	48 89 45 10          	mov    %rax,0x10(%rbp)
  402991:	48 89 55 18          	mov    %rdx,0x18(%rbp)
  402995:	48 b8 20 69 6c 6c 65 	movabs $0x6c6167656c6c6920,%rax
  40299c:	67 61 6c 
  40299f:	48 ba 20 6f 72 20 75 	movabs $0x72706e7520726f20,%rdx
  4029a6:	6e 70 72 
  4029a9:	48 89 45 20          	mov    %rax,0x20(%rbp)
  4029ad:	48 89 55 28          	mov    %rdx,0x28(%rbp)
  4029b1:	48 b8 69 6e 74 61 62 	movabs $0x20656c6261746e69,%rax
  4029b8:	6c 65 20 
  4029bb:	48 ba 63 68 61 72 61 	movabs $0x6574636172616863,%rdx
  4029c2:	63 74 65 
  4029c5:	48 89 45 30          	mov    %rax,0x30(%rbp)
  4029c9:	48 89 55 38          	mov    %rdx,0x38(%rbp)
  4029cd:	66 c7 45 40 72 2e    	movw   $0x2e72,0x40(%rbp)
  4029d3:	c6 45 42 00          	movb   $0x0,0x42(%rbp)
  4029d7:	89 df                	mov    %ebx,%edi
  4029d9:	e8 e2 e2 ff ff       	callq  400cc0 <close@plt>
  4029de:	b8 ff ff ff ff       	mov    $0xffffffff,%eax
  4029e3:	e9 33 fe ff ff       	jmpq   40281b <submitr+0x333>
  4029e8:	48 b8 45 72 72 6f 72 	movabs $0x43203a726f727245,%rax
  4029ef:	3a 20 43 
  4029f2:	48 ba 6c 69 65 6e 74 	movabs $0x6e7520746e65696c,%rdx
  4029f9:	20 75 6e 
  4029fc:	48 89 45 00          	mov    %rax,0x0(%rbp)
  402a00:	48 89 55 08          	mov    %rdx,0x8(%rbp)
  402a04:	48 b8 61 62 6c 65 20 	movabs $0x206f7420656c6261,%rax
  402a0b:	74 6f 20 
  402a0e:	48 ba 77 72 69 74 65 	movabs $0x6f74206574697277,%rdx
  402a15:	20 74 6f 
  402a18:	48 89 45 10          	mov    %rax,0x10(%rbp)
  402a1c:	48 89 55 18          	mov    %rdx,0x18(%rbp)
  402a20:	48 b8 20 74 68 65 20 	movabs $0x7365722065687420,%rax
  402a27:	72 65 73 
  402a2a:	48 ba 75 6c 74 20 73 	movabs $0x7672657320746c75,%rdx
  402a31:	65 72 76 
  402a34:	48 89 45 20          	mov    %rax,0x20(%rbp)
  402a38:	48 89 55 28          	mov    %rdx,0x28(%rbp)
  402a3c:	66 c7 45 30 65 72    	movw   $0x7265,0x30(%rbp)
  402a42:	c6 45 32 00          	movb   $0x0,0x32(%rbp)
  402a46:	89 df                	mov    %ebx,%edi
  402a48:	e8 73 e2 ff ff       	callq  400cc0 <close@plt>
  402a4d:	b8 ff ff ff ff       	mov    $0xffffffff,%eax
  402a52:	e9 c4 fd ff ff       	jmpq   40281b <submitr+0x333>
  402a57:	48 b8 45 72 72 6f 72 	movabs $0x43203a726f727245,%rax
  402a5e:	3a 20 43 
  402a61:	48 ba 6c 69 65 6e 74 	movabs $0x6e7520746e65696c,%rdx
  402a68:	20 75 6e 
  402a6b:	48 89 45 00          	mov    %rax,0x0(%rbp)
  402a6f:	48 89 55 08          	mov    %rdx,0x8(%rbp)
  402a73:	48 b8 61 62 6c 65 20 	movabs $0x206f7420656c6261,%rax
  402a7a:	74 6f 20 
  402a7d:	48 ba 72 65 61 64 20 	movabs $0x7269662064616572,%rdx
  402a84:	66 69 72 
  402a87:	48 89 45 10          	mov    %rax,0x10(%rbp)
  402a8b:	48 89 55 18          	mov    %rdx,0x18(%rbp)
  402a8f:	48 b8 73 74 20 68 65 	movabs $0x6564616568207473,%rax
  402a96:	61 64 65 
  402a99:	48 ba 72 20 66 72 6f 	movabs $0x72206d6f72662072,%rdx
  402aa0:	6d 20 72 
  402aa3:	48 89 45 20          	mov    %rax,0x20(%rbp)
  402aa7:	48 89 55 28          	mov    %rdx,0x28(%rbp)
  402aab:	48 b8 65 73 75 6c 74 	movabs $0x657320746c757365,%rax
  402ab2:	20 73 65 
  402ab5:	48 89 45 30          	mov    %rax,0x30(%rbp)
  402ab9:	c7 45 38 72 76 65 72 	movl   $0x72657672,0x38(%rbp)
  402ac0:	c6 45 3c 00          	movb   $0x0,0x3c(%rbp)
  402ac4:	89 df                	mov    %ebx,%edi
  402ac6:	e8 f5 e1 ff ff       	callq  400cc0 <close@plt>
  402acb:	b8 ff ff ff ff       	mov    $0xffffffff,%eax
  402ad0:	e9 46 fd ff ff       	jmpq   40281b <submitr+0x333>
  402ad5:	48 8d b4 24 40 20 00 	lea    0x2040(%rsp),%rsi
  402adc:	00 
  402add:	48 8d 7c 24 20       	lea    0x20(%rsp),%rdi
  402ae2:	ba 00 20 00 00       	mov    $0x2000,%edx
  402ae7:	e8 45 f8 ff ff       	callq  402331 <rio_readlineb>
  402aec:	48 85 c0             	test   %rax,%rax
  402aef:	0f 8e 91 00 00 00    	jle    402b86 <submitr+0x69e>
  402af5:	41 81 fc c8 00 00 00 	cmp    $0xc8,%r12d
  402afc:	0f 85 08 01 00 00    	jne    402c0a <submitr+0x722>
  402b02:	48 8d b4 24 40 20 00 	lea    0x2040(%rsp),%rsi
  402b09:	00 
  402b0a:	48 89 ef             	mov    %rbp,%rdi
  402b0d:	e8 3e e1 ff ff       	callq  400c50 <strcpy@plt>
  402b12:	89 df                	mov    %ebx,%edi
  402b14:	e8 a7 e1 ff ff       	callq  400cc0 <close@plt>
  402b19:	b9 04 00 00 00       	mov    $0x4,%ecx
  402b1e:	48 8d 3d c8 0b 00 00 	lea    0xbc8(%rip),%rdi        # 4036ed <trans_char+0xbd>
  402b25:	48 89 ee             	mov    %rbp,%rsi
  402b28:	f3 a6                	repz cmpsb %es:(%rdi),%ds:(%rsi)
  402b2a:	0f 97 c0             	seta   %al
  402b2d:	1c 00                	sbb    $0x0,%al
  402b2f:	0f be c0             	movsbl %al,%eax
  402b32:	85 c0                	test   %eax,%eax
  402b34:	0f 84 e1 fc ff ff    	je     40281b <submitr+0x333>
  402b3a:	b9 05 00 00 00       	mov    $0x5,%ecx
  402b3f:	48 8d 3d ab 0b 00 00 	lea    0xbab(%rip),%rdi        # 4036f1 <trans_char+0xc1>
  402b46:	48 89 ee             	mov    %rbp,%rsi
  402b49:	f3 a6                	repz cmpsb %es:(%rdi),%ds:(%rsi)
  402b4b:	0f 97 c0             	seta   %al
  402b4e:	1c 00                	sbb    $0x0,%al
  402b50:	0f be c0             	movsbl %al,%eax
  402b53:	85 c0                	test   %eax,%eax
  402b55:	0f 84 c0 fc ff ff    	je     40281b <submitr+0x333>
  402b5b:	b9 03 00 00 00       	mov    $0x3,%ecx
  402b60:	48 8d 3d 8f 0b 00 00 	lea    0xb8f(%rip),%rdi        # 4036f6 <trans_char+0xc6>
  402b67:	48 89 ee             	mov    %rbp,%rsi
  402b6a:	f3 a6                	repz cmpsb %es:(%rdi),%ds:(%rsi)
  402b6c:	0f 97 c0             	seta   %al
  402b6f:	1c 00                	sbb    $0x0,%al
  402b71:	0f be c0             	movsbl %al,%eax
  402b74:	85 c0                	test   %eax,%eax
  402b76:	0f 84 9f fc ff ff    	je     40281b <submitr+0x333>
  402b7c:	b8 ff ff ff ff       	mov    $0xffffffff,%eax
  402b81:	e9 95 fc ff ff       	jmpq   40281b <submitr+0x333>
  402b86:	48 b8 45 72 72 6f 72 	movabs $0x43203a726f727245,%rax
  402b8d:	3a 20 43 
  402b90:	48 ba 6c 69 65 6e 74 	movabs $0x6e7520746e65696c,%rdx
  402b97:	20 75 6e 
  402b9a:	48 89 45 00          	mov    %rax,0x0(%rbp)
  402b9e:	48 89 55 08          	mov    %rdx,0x8(%rbp)
  402ba2:	48 b8 61 62 6c 65 20 	movabs $0x206f7420656c6261,%rax
  402ba9:	74 6f 20 
  402bac:	48 ba 72 65 61 64 20 	movabs $0x6174732064616572,%rdx
  402bb3:	73 74 61 
  402bb6:	48 89 45 10          	mov    %rax,0x10(%rbp)
  402bba:	48 89 55 18          	mov    %rdx,0x18(%rbp)
  402bbe:	48 b8 74 75 73 20 6d 	movabs $0x7373656d20737574,%rax
  402bc5:	65 73 73 
  402bc8:	48 ba 61 67 65 20 66 	movabs $0x6d6f726620656761,%rdx
  402bcf:	72 6f 6d 
  402bd2:	48 89 45 20          	mov    %rax,0x20(%rbp)
  402bd6:	48 89 55 28          	mov    %rdx,0x28(%rbp)
  402bda:	48 b8 20 72 65 73 75 	movabs $0x20746c7573657220,%rax
  402be1:	6c 74 20 
  402be4:	48 89 45 30          	mov    %rax,0x30(%rbp)
  402be8:	c7 45 38 73 65 72 76 	movl   $0x76726573,0x38(%rbp)
  402bef:	66 c7 45 3c 65 72    	movw   $0x7265,0x3c(%rbp)
  402bf5:	c6 45 3e 00          	movb   $0x0,0x3e(%rbp)
  402bf9:	89 df                	mov    %ebx,%edi
  402bfb:	e8 c0 e0 ff ff       	callq  400cc0 <close@plt>
  402c00:	b8 ff ff ff ff       	mov    $0xffffffff,%eax
  402c05:	e9 11 fc ff ff       	jmpq   40281b <submitr+0x333>
  402c0a:	4c 8d 8c 24 40 80 00 	lea    0x8040(%rsp),%r9
  402c11:	00 
  402c12:	45 89 e0             	mov    %r12d,%r8d
  402c15:	48 8d 0d 8c 0a 00 00 	lea    0xa8c(%rip),%rcx        # 4036a8 <trans_char+0x78>
  402c1c:	48 c7 c2 ff ff ff ff 	mov    $0xffffffffffffffff,%rdx
  402c23:	be 01 00 00 00       	mov    $0x1,%esi
  402c28:	48 89 ef             	mov    %rbp,%rdi
  402c2b:	b8 00 00 00 00       	mov    $0x0,%eax
  402c30:	e8 cb e1 ff ff       	callq  400e00 <__sprintf_chk@plt>
  402c35:	89 df                	mov    %ebx,%edi
  402c37:	e8 84 e0 ff ff       	callq  400cc0 <close@plt>
  402c3c:	b8 ff ff ff ff       	mov    $0xffffffff,%eax
  402c41:	e9 d5 fb ff ff       	jmpq   40281b <submitr+0x333>
  402c46:	e8 35 e0 ff ff       	callq  400c80 <__stack_chk_fail@plt>

0000000000402c4b <init_timeout>:
  402c4b:	85 ff                	test   %edi,%edi
  402c4d:	74 28                	je     402c77 <init_timeout+0x2c>
  402c4f:	53                   	push   %rbx
  402c50:	89 fb                	mov    %edi,%ebx
  402c52:	85 ff                	test   %edi,%edi
  402c54:	78 1a                	js     402c70 <init_timeout+0x25>
  402c56:	48 8d 35 bb f5 ff ff 	lea    -0xa45(%rip),%rsi        # 402218 <sigalrm_handler>
  402c5d:	bf 0e 00 00 00       	mov    $0xe,%edi
  402c62:	e8 79 e0 ff ff       	callq  400ce0 <signal@plt>
  402c67:	89 df                	mov    %ebx,%edi
  402c69:	e8 42 e0 ff ff       	callq  400cb0 <alarm@plt>
  402c6e:	5b                   	pop    %rbx
  402c6f:	c3                   	retq   
  402c70:	bb 00 00 00 00       	mov    $0x0,%ebx
  402c75:	eb df                	jmp    402c56 <init_timeout+0xb>
  402c77:	f3 c3                	repz retq 

0000000000402c79 <init_driver>:
  402c79:	41 54                	push   %r12
  402c7b:	55                   	push   %rbp
  402c7c:	53                   	push   %rbx
  402c7d:	48 83 ec 20          	sub    $0x20,%rsp
  402c81:	49 89 fc             	mov    %rdi,%r12
  402c84:	64 48 8b 04 25 28 00 	mov    %fs:0x28,%rax
  402c8b:	00 00 
  402c8d:	48 89 44 24 18       	mov    %rax,0x18(%rsp)
  402c92:	31 c0                	xor    %eax,%eax
  402c94:	be 01 00 00 00       	mov    $0x1,%esi
  402c99:	bf 0d 00 00 00       	mov    $0xd,%edi
  402c9e:	e8 3d e0 ff ff       	callq  400ce0 <signal@plt>
  402ca3:	be 01 00 00 00       	mov    $0x1,%esi
  402ca8:	bf 1d 00 00 00       	mov    $0x1d,%edi
  402cad:	e8 2e e0 ff ff       	callq  400ce0 <signal@plt>
  402cb2:	be 01 00 00 00       	mov    $0x1,%esi
  402cb7:	bf 1d 00 00 00       	mov    $0x1d,%edi
  402cbc:	e8 1f e0 ff ff       	callq  400ce0 <signal@plt>
  402cc1:	ba 00 00 00 00       	mov    $0x0,%edx
  402cc6:	be 01 00 00 00       	mov    $0x1,%esi
  402ccb:	bf 02 00 00 00       	mov    $0x2,%edi
  402cd0:	e8 3b e1 ff ff       	callq  400e10 <socket@plt>
  402cd5:	85 c0                	test   %eax,%eax
  402cd7:	0f 88 a3 00 00 00    	js     402d80 <init_driver+0x107>
  402cdd:	89 c3                	mov    %eax,%ebx
  402cdf:	48 8d 3d 13 0a 00 00 	lea    0xa13(%rip),%rdi        # 4036f9 <trans_char+0xc9>
  402ce6:	e8 05 e0 ff ff       	callq  400cf0 <gethostbyname@plt>
  402ceb:	48 85 c0             	test   %rax,%rax
  402cee:	0f 84 df 00 00 00    	je     402dd3 <init_driver+0x15a>
  402cf4:	48 89 e5             	mov    %rsp,%rbp
  402cf7:	48 c7 44 24 02 00 00 	movq   $0x0,0x2(%rsp)
  402cfe:	00 00 
  402d00:	c7 45 0a 00 00 00 00 	movl   $0x0,0xa(%rbp)
  402d07:	66 c7 45 0e 00 00    	movw   $0x0,0xe(%rbp)
  402d0d:	66 c7 04 24 02 00    	movw   $0x2,(%rsp)
  402d13:	48 63 50 14          	movslq 0x14(%rax),%rdx
  402d17:	48 8b 40 18          	mov    0x18(%rax),%rax
  402d1b:	48 8b 30             	mov    (%rax),%rsi
  402d1e:	48 8d 7d 04          	lea    0x4(%rbp),%rdi
  402d22:	b9 0c 00 00 00       	mov    $0xc,%ecx
  402d27:	e8 d4 df ff ff       	callq  400d00 <__memmove_chk@plt>
  402d2c:	66 c7 44 24 02 c7 3d 	movw   $0x3dc7,0x2(%rsp)
  402d33:	ba 10 00 00 00       	mov    $0x10,%edx
  402d38:	48 89 ee             	mov    %rbp,%rsi
  402d3b:	89 df                	mov    %ebx,%edi
  402d3d:	e8 9e e0 ff ff       	callq  400de0 <connect@plt>
  402d42:	85 c0                	test   %eax,%eax
  402d44:	0f 88 fb 00 00 00    	js     402e45 <init_driver+0x1cc>
  402d4a:	89 df                	mov    %ebx,%edi
  402d4c:	e8 6f df ff ff       	callq  400cc0 <close@plt>
  402d51:	66 41 c7 04 24 4f 4b 	movw   $0x4b4f,(%r12)
  402d58:	41 c6 44 24 02 00    	movb   $0x0,0x2(%r12)
  402d5e:	b8 00 00 00 00       	mov    $0x0,%eax
  402d63:	48 8b 4c 24 18       	mov    0x18(%rsp),%rcx
  402d68:	64 48 33 0c 25 28 00 	xor    %fs:0x28,%rcx
  402d6f:	00 00 
  402d71:	0f 85 28 01 00 00    	jne    402e9f <init_driver+0x226>
  402d77:	48 83 c4 20          	add    $0x20,%rsp
  402d7b:	5b                   	pop    %rbx
  402d7c:	5d                   	pop    %rbp
  402d7d:	41 5c                	pop    %r12
  402d7f:	c3                   	retq   
  402d80:	48 b8 45 72 72 6f 72 	movabs $0x43203a726f727245,%rax
  402d87:	3a 20 43 
  402d8a:	48 ba 6c 69 65 6e 74 	movabs $0x6e7520746e65696c,%rdx
  402d91:	20 75 6e 
  402d94:	49 89 04 24          	mov    %rax,(%r12)
  402d98:	49 89 54 24 08       	mov    %rdx,0x8(%r12)
  402d9d:	48 b8 61 62 6c 65 20 	movabs $0x206f7420656c6261,%rax
  402da4:	74 6f 20 
  402da7:	48 ba 63 72 65 61 74 	movabs $0x7320657461657263,%rdx
  402dae:	65 20 73 
  402db1:	49 89 44 24 10       	mov    %rax,0x10(%r12)
  402db6:	49 89 54 24 18       	mov    %rdx,0x18(%r12)
  402dbb:	41 c7 44 24 20 6f 63 	movl   $0x656b636f,0x20(%r12)
  402dc2:	6b 65 
  402dc4:	66 41 c7 44 24 24 74 	movw   $0x74,0x24(%r12)
  402dcb:	00 
  402dcc:	b8 ff ff ff ff       	mov    $0xffffffff,%eax
  402dd1:	eb 90                	jmp    402d63 <init_driver+0xea>
  402dd3:	48 b8 45 72 72 6f 72 	movabs $0x44203a726f727245,%rax
  402dda:	3a 20 44 
  402ddd:	48 ba 4e 53 20 69 73 	movabs $0x6e7520736920534e,%rdx
  402de4:	20 75 6e 
  402de7:	49 89 04 24          	mov    %rax,(%r12)
  402deb:	49 89 54 24 08       	mov    %rdx,0x8(%r12)
  402df0:	48 b8 61 62 6c 65 20 	movabs $0x206f7420656c6261,%rax
  402df7:	74 6f 20 
  402dfa:	48 ba 72 65 73 6f 6c 	movabs $0x2065766c6f736572,%rdx
  402e01:	76 65 20 
  402e04:	49 89 44 24 10       	mov    %rax,0x10(%r12)
  402e09:	49 89 54 24 18       	mov    %rdx,0x18(%r12)
  402e0e:	48 b8 73 65 72 76 65 	movabs $0x6120726576726573,%rax
  402e15:	72 20 61 
  402e18:	49 89 44 24 20       	mov    %rax,0x20(%r12)
  402e1d:	41 c7 44 24 28 64 64 	movl   $0x65726464,0x28(%r12)
  402e24:	72 65 
  402e26:	66 41 c7 44 24 2c 73 	movw   $0x7373,0x2c(%r12)
  402e2d:	73 
  402e2e:	41 c6 44 24 2e 00    	movb   $0x0,0x2e(%r12)
  402e34:	89 df                	mov    %ebx,%edi
  402e36:	e8 85 de ff ff       	callq  400cc0 <close@plt>
  402e3b:	b8 ff ff ff ff       	mov    $0xffffffff,%eax
  402e40:	e9 1e ff ff ff       	jmpq   402d63 <init_driver+0xea>
  402e45:	48 b8 45 72 72 6f 72 	movabs $0x55203a726f727245,%rax
  402e4c:	3a 20 55 
  402e4f:	48 ba 6e 61 62 6c 65 	movabs $0x6f7420656c62616e,%rdx
  402e56:	20 74 6f 
  402e59:	49 89 04 24          	mov    %rax,(%r12)
  402e5d:	49 89 54 24 08       	mov    %rdx,0x8(%r12)
  402e62:	48 b8 20 63 6f 6e 6e 	movabs $0x7463656e6e6f6320,%rax
  402e69:	65 63 74 
  402e6c:	48 ba 20 74 6f 20 73 	movabs $0x76726573206f7420,%rdx
  402e73:	65 72 76 
  402e76:	49 89 44 24 10       	mov    %rax,0x10(%r12)
  402e7b:	49 89 54 24 18       	mov    %rdx,0x18(%r12)
  402e80:	66 41 c7 44 24 20 65 	movw   $0x7265,0x20(%r12)
  402e87:	72 
  402e88:	41 c6 44 24 22 00    	movb   $0x0,0x22(%r12)
  402e8e:	89 df                	mov    %ebx,%edi
  402e90:	e8 2b de ff ff       	callq  400cc0 <close@plt>
  402e95:	b8 ff ff ff ff       	mov    $0xffffffff,%eax
  402e9a:	e9 c4 fe ff ff       	jmpq   402d63 <init_driver+0xea>
  402e9f:	e8 dc dd ff ff       	callq  400c80 <__stack_chk_fail@plt>

0000000000402ea4 <driver_post>:
  402ea4:	53                   	push   %rbx
  402ea5:	4c 89 cb             	mov    %r9,%rbx
  402ea8:	45 85 c0             	test   %r8d,%r8d
  402eab:	75 18                	jne    402ec5 <driver_post+0x21>
  402ead:	48 85 ff             	test   %rdi,%rdi
  402eb0:	74 05                	je     402eb7 <driver_post+0x13>
  402eb2:	80 3f 00             	cmpb   $0x0,(%rdi)
  402eb5:	75 37                	jne    402eee <driver_post+0x4a>
  402eb7:	66 c7 03 4f 4b       	movw   $0x4b4f,(%rbx)
  402ebc:	c6 43 02 00          	movb   $0x0,0x2(%rbx)
  402ec0:	44 89 c0             	mov    %r8d,%eax
  402ec3:	5b                   	pop    %rbx
  402ec4:	c3                   	retq   
  402ec5:	48 89 ca             	mov    %rcx,%rdx
  402ec8:	48 8d 35 3a 08 00 00 	lea    0x83a(%rip),%rsi        # 403709 <trans_char+0xd9>
  402ecf:	bf 01 00 00 00       	mov    $0x1,%edi
  402ed4:	b8 00 00 00 00       	mov    $0x0,%eax
  402ed9:	e8 b2 de ff ff       	callq  400d90 <__printf_chk@plt>
  402ede:	66 c7 03 4f 4b       	movw   $0x4b4f,(%rbx)
  402ee3:	c6 43 02 00          	movb   $0x0,0x2(%rbx)
  402ee7:	b8 00 00 00 00       	mov    $0x0,%eax
  402eec:	eb d5                	jmp    402ec3 <driver_post+0x1f>
  402eee:	48 83 ec 08          	sub    $0x8,%rsp
  402ef2:	41 51                	push   %r9
  402ef4:	49 89 c9             	mov    %rcx,%r9
  402ef7:	49 89 d0             	mov    %rdx,%r8
  402efa:	48 89 f9             	mov    %rdi,%rcx
  402efd:	48 89 f2             	mov    %rsi,%rdx
  402f00:	be 3d c7 00 00       	mov    $0xc73d,%esi
  402f05:	48 8d 3d ed 07 00 00 	lea    0x7ed(%rip),%rdi        # 4036f9 <trans_char+0xc9>
  402f0c:	e8 d7 f5 ff ff       	callq  4024e8 <submitr>
  402f11:	48 83 c4 10          	add    $0x10,%rsp
  402f15:	eb ac                	jmp    402ec3 <driver_post+0x1f>

0000000000402f17 <check>:
  402f17:	89 f8                	mov    %edi,%eax
  402f19:	c1 e8 1c             	shr    $0x1c,%eax
  402f1c:	85 c0                	test   %eax,%eax
  402f1e:	74 1d                	je     402f3d <check+0x26>
  402f20:	b9 00 00 00 00       	mov    $0x0,%ecx
  402f25:	83 f9 1f             	cmp    $0x1f,%ecx
  402f28:	7f 0d                	jg     402f37 <check+0x20>
  402f2a:	89 f8                	mov    %edi,%eax
  402f2c:	d3 e8                	shr    %cl,%eax
  402f2e:	3c 0a                	cmp    $0xa,%al
  402f30:	74 11                	je     402f43 <check+0x2c>
  402f32:	83 c1 08             	add    $0x8,%ecx
  402f35:	eb ee                	jmp    402f25 <check+0xe>
  402f37:	b8 01 00 00 00       	mov    $0x1,%eax
  402f3c:	c3                   	retq   
  402f3d:	b8 00 00 00 00       	mov    $0x0,%eax
  402f42:	c3                   	retq   
  402f43:	b8 00 00 00 00       	mov    $0x0,%eax
  402f48:	c3                   	retq   

0000000000402f49 <gencookie>:
  402f49:	53                   	push   %rbx
  402f4a:	83 c7 01             	add    $0x1,%edi
  402f4d:	e8 de dc ff ff       	callq  400c30 <srandom@plt>
  402f52:	e8 09 de ff ff       	callq  400d60 <random@plt>
  402f57:	89 c3                	mov    %eax,%ebx
  402f59:	89 c7                	mov    %eax,%edi
  402f5b:	e8 b7 ff ff ff       	callq  402f17 <check>
  402f60:	85 c0                	test   %eax,%eax
  402f62:	74 ee                	je     402f52 <gencookie+0x9>
  402f64:	89 d8                	mov    %ebx,%eax
  402f66:	5b                   	pop    %rbx
  402f67:	c3                   	retq   
  402f68:	0f 1f 84 00 00 00 00 	nopl   0x0(%rax,%rax,1)
  402f6f:	00 

0000000000402f70 <__libc_csu_init>:
  402f70:	41 57                	push   %r15
  402f72:	41 56                	push   %r14
  402f74:	49 89 d7             	mov    %rdx,%r15
  402f77:	41 55                	push   %r13
  402f79:	41 54                	push   %r12
  402f7b:	4c 8d 25 8e 1e 20 00 	lea    0x201e8e(%rip),%r12        # 604e10 <__frame_dummy_init_array_entry>
  402f82:	55                   	push   %rbp
  402f83:	48 8d 2d 8e 1e 20 00 	lea    0x201e8e(%rip),%rbp        # 604e18 <__init_array_end>
  402f8a:	53                   	push   %rbx
  402f8b:	41 89 fd             	mov    %edi,%r13d
  402f8e:	49 89 f6             	mov    %rsi,%r14
  402f91:	4c 29 e5             	sub    %r12,%rbp
  402f94:	48 83 ec 08          	sub    $0x8,%rsp
  402f98:	48 c1 fd 03          	sar    $0x3,%rbp
  402f9c:	e8 4f dc ff ff       	callq  400bf0 <_init>
  402fa1:	48 85 ed             	test   %rbp,%rbp
  402fa4:	74 20                	je     402fc6 <__libc_csu_init+0x56>
  402fa6:	31 db                	xor    %ebx,%ebx
  402fa8:	0f 1f 84 00 00 00 00 	nopl   0x0(%rax,%rax,1)
  402faf:	00 
  402fb0:	4c 89 fa             	mov    %r15,%rdx
  402fb3:	4c 89 f6             	mov    %r14,%rsi
  402fb6:	44 89 ef             	mov    %r13d,%edi
  402fb9:	41 ff 14 dc          	callq  *(%r12,%rbx,8)
  402fbd:	48 83 c3 01          	add    $0x1,%rbx
  402fc1:	48 39 dd             	cmp    %rbx,%rbp
  402fc4:	75 ea                	jne    402fb0 <__libc_csu_init+0x40>
  402fc6:	48 83 c4 08          	add    $0x8,%rsp
  402fca:	5b                   	pop    %rbx
  402fcb:	5d                   	pop    %rbp
  402fcc:	41 5c                	pop    %r12
  402fce:	41 5d                	pop    %r13
  402fd0:	41 5e                	pop    %r14
  402fd2:	41 5f                	pop    %r15
  402fd4:	c3                   	retq   
  402fd5:	90                   	nop
  402fd6:	66 2e 0f 1f 84 00 00 	nopw   %cs:0x0(%rax,%rax,1)
  402fdd:	00 00 00 

0000000000402fe0 <__libc_csu_fini>:
  402fe0:	f3 c3                	repz retq 

Disassembly of section .fini:

0000000000402fe4 <_fini>:
  402fe4:	48 83 ec 08          	sub    $0x8,%rsp
  402fe8:	48 83 c4 08          	add    $0x8,%rsp
  402fec:	c3                   	retq   
