
ctarget:     file format elf64-x86-64


Disassembly of section .init:

0000000000400bf0 <_init>:
  400bf0:	48 83 ec 08          	sub    $0x8,%rsp
  400bf4:	48 8b 05 fd 33 20 00 	mov    0x2033fd(%rip),%rax        # 603ff8 <__gmon_start__>
  400bfb:	48 85 c0             	test   %rax,%rax
  400bfe:	74 02                	je     400c02 <_init+0x12>
  400c00:	ff d0                	callq  *%rax
  400c02:	48 83 c4 08          	add    $0x8,%rsp
  400c06:	c3                   	retq   

Disassembly of section .plt:

0000000000400c10 <.plt>:
  400c10:	ff 35 f2 33 20 00    	pushq  0x2033f2(%rip)        # 604008 <_GLOBAL_OFFSET_TABLE_+0x8>
  400c16:	ff 25 f4 33 20 00    	jmpq   *0x2033f4(%rip)        # 604010 <_GLOBAL_OFFSET_TABLE_+0x10>
  400c1c:	0f 1f 40 00          	nopl   0x0(%rax)

0000000000400c20 <__errno_location@plt>:
  400c20:	ff 25 f2 33 20 00    	jmpq   *0x2033f2(%rip)        # 604018 <__errno_location@GLIBC_2.2.5>
  400c26:	68 00 00 00 00       	pushq  $0x0
  400c2b:	e9 e0 ff ff ff       	jmpq   400c10 <.plt>

0000000000400c30 <srandom@plt>:
  400c30:	ff 25 ea 33 20 00    	jmpq   *0x2033ea(%rip)        # 604020 <srandom@GLIBC_2.2.5>
  400c36:	68 01 00 00 00       	pushq  $0x1
  400c3b:	e9 d0 ff ff ff       	jmpq   400c10 <.plt>

0000000000400c40 <strncmp@plt>:
  400c40:	ff 25 e2 33 20 00    	jmpq   *0x2033e2(%rip)        # 604028 <strncmp@GLIBC_2.2.5>
  400c46:	68 02 00 00 00       	pushq  $0x2
  400c4b:	e9 c0 ff ff ff       	jmpq   400c10 <.plt>

0000000000400c50 <strcpy@plt>:
  400c50:	ff 25 da 33 20 00    	jmpq   *0x2033da(%rip)        # 604030 <strcpy@GLIBC_2.2.5>
  400c56:	68 03 00 00 00       	pushq  $0x3
  400c5b:	e9 b0 ff ff ff       	jmpq   400c10 <.plt>

0000000000400c60 <puts@plt>:
  400c60:	ff 25 d2 33 20 00    	jmpq   *0x2033d2(%rip)        # 604038 <puts@GLIBC_2.2.5>
  400c66:	68 04 00 00 00       	pushq  $0x4
  400c6b:	e9 a0 ff ff ff       	jmpq   400c10 <.plt>

0000000000400c70 <write@plt>:
  400c70:	ff 25 ca 33 20 00    	jmpq   *0x2033ca(%rip)        # 604040 <write@GLIBC_2.2.5>
  400c76:	68 05 00 00 00       	pushq  $0x5
  400c7b:	e9 90 ff ff ff       	jmpq   400c10 <.plt>

0000000000400c80 <__stack_chk_fail@plt>:
  400c80:	ff 25 c2 33 20 00    	jmpq   *0x2033c2(%rip)        # 604048 <__stack_chk_fail@GLIBC_2.4>
  400c86:	68 06 00 00 00       	pushq  $0x6
  400c8b:	e9 80 ff ff ff       	jmpq   400c10 <.plt>

0000000000400c90 <mmap@plt>:
  400c90:	ff 25 ba 33 20 00    	jmpq   *0x2033ba(%rip)        # 604050 <mmap@GLIBC_2.2.5>
  400c96:	68 07 00 00 00       	pushq  $0x7
  400c9b:	e9 70 ff ff ff       	jmpq   400c10 <.plt>

0000000000400ca0 <memset@plt>:
  400ca0:	ff 25 b2 33 20 00    	jmpq   *0x2033b2(%rip)        # 604058 <memset@GLIBC_2.2.5>
  400ca6:	68 08 00 00 00       	pushq  $0x8
  400cab:	e9 60 ff ff ff       	jmpq   400c10 <.plt>

0000000000400cb0 <alarm@plt>:
  400cb0:	ff 25 aa 33 20 00    	jmpq   *0x2033aa(%rip)        # 604060 <alarm@GLIBC_2.2.5>
  400cb6:	68 09 00 00 00       	pushq  $0x9
  400cbb:	e9 50 ff ff ff       	jmpq   400c10 <.plt>

0000000000400cc0 <close@plt>:
  400cc0:	ff 25 a2 33 20 00    	jmpq   *0x2033a2(%rip)        # 604068 <close@GLIBC_2.2.5>
  400cc6:	68 0a 00 00 00       	pushq  $0xa
  400ccb:	e9 40 ff ff ff       	jmpq   400c10 <.plt>

0000000000400cd0 <read@plt>:
  400cd0:	ff 25 9a 33 20 00    	jmpq   *0x20339a(%rip)        # 604070 <read@GLIBC_2.2.5>
  400cd6:	68 0b 00 00 00       	pushq  $0xb
  400cdb:	e9 30 ff ff ff       	jmpq   400c10 <.plt>

0000000000400ce0 <signal@plt>:
  400ce0:	ff 25 92 33 20 00    	jmpq   *0x203392(%rip)        # 604078 <signal@GLIBC_2.2.5>
  400ce6:	68 0c 00 00 00       	pushq  $0xc
  400ceb:	e9 20 ff ff ff       	jmpq   400c10 <.plt>

0000000000400cf0 <gethostbyname@plt>:
  400cf0:	ff 25 8a 33 20 00    	jmpq   *0x20338a(%rip)        # 604080 <gethostbyname@GLIBC_2.2.5>
  400cf6:	68 0d 00 00 00       	pushq  $0xd
  400cfb:	e9 10 ff ff ff       	jmpq   400c10 <.plt>

0000000000400d00 <__memmove_chk@plt>:
  400d00:	ff 25 82 33 20 00    	jmpq   *0x203382(%rip)        # 604088 <__memmove_chk@GLIBC_2.3.4>
  400d06:	68 0e 00 00 00       	pushq  $0xe
  400d0b:	e9 00 ff ff ff       	jmpq   400c10 <.plt>

0000000000400d10 <__memcpy_chk@plt>:
  400d10:	ff 25 7a 33 20 00    	jmpq   *0x20337a(%rip)        # 604090 <__memcpy_chk@GLIBC_2.3.4>
  400d16:	68 0f 00 00 00       	pushq  $0xf
  400d1b:	e9 f0 fe ff ff       	jmpq   400c10 <.plt>

0000000000400d20 <strtol@plt>:
  400d20:	ff 25 72 33 20 00    	jmpq   *0x203372(%rip)        # 604098 <strtol@GLIBC_2.2.5>
  400d26:	68 10 00 00 00       	pushq  $0x10
  400d2b:	e9 e0 fe ff ff       	jmpq   400c10 <.plt>

0000000000400d30 <memcpy@plt>:
  400d30:	ff 25 6a 33 20 00    	jmpq   *0x20336a(%rip)        # 6040a0 <memcpy@GLIBC_2.14>
  400d36:	68 11 00 00 00       	pushq  $0x11
  400d3b:	e9 d0 fe ff ff       	jmpq   400c10 <.plt>

0000000000400d40 <time@plt>:
  400d40:	ff 25 62 33 20 00    	jmpq   *0x203362(%rip)        # 6040a8 <time@GLIBC_2.2.5>
  400d46:	68 12 00 00 00       	pushq  $0x12
  400d4b:	e9 c0 fe ff ff       	jmpq   400c10 <.plt>

0000000000400d50 <inet_aton@plt>:
  400d50:	ff 25 5a 33 20 00    	jmpq   *0x20335a(%rip)        # 6040b0 <inet_aton@GLIBC_2.2.5>
  400d56:	68 13 00 00 00       	pushq  $0x13
  400d5b:	e9 b0 fe ff ff       	jmpq   400c10 <.plt>

0000000000400d60 <random@plt>:
  400d60:	ff 25 52 33 20 00    	jmpq   *0x203352(%rip)        # 6040b8 <random@GLIBC_2.2.5>
  400d66:	68 14 00 00 00       	pushq  $0x14
  400d6b:	e9 a0 fe ff ff       	jmpq   400c10 <.plt>

0000000000400d70 <_IO_getc@plt>:
  400d70:	ff 25 4a 33 20 00    	jmpq   *0x20334a(%rip)        # 6040c0 <_IO_getc@GLIBC_2.2.5>
  400d76:	68 15 00 00 00       	pushq  $0x15
  400d7b:	e9 90 fe ff ff       	jmpq   400c10 <.plt>

0000000000400d80 <munmap@plt>:
  400d80:	ff 25 42 33 20 00    	jmpq   *0x203342(%rip)        # 6040c8 <munmap@GLIBC_2.2.5>
  400d86:	68 16 00 00 00       	pushq  $0x16
  400d8b:	e9 80 fe ff ff       	jmpq   400c10 <.plt>

0000000000400d90 <__printf_chk@plt>:
  400d90:	ff 25 3a 33 20 00    	jmpq   *0x20333a(%rip)        # 6040d0 <__printf_chk@GLIBC_2.3.4>
  400d96:	68 17 00 00 00       	pushq  $0x17
  400d9b:	e9 70 fe ff ff       	jmpq   400c10 <.plt>

0000000000400da0 <fopen@plt>:
  400da0:	ff 25 32 33 20 00    	jmpq   *0x203332(%rip)        # 6040d8 <fopen@GLIBC_2.2.5>
  400da6:	68 18 00 00 00       	pushq  $0x18
  400dab:	e9 60 fe ff ff       	jmpq   400c10 <.plt>

0000000000400db0 <getopt@plt>:
  400db0:	ff 25 2a 33 20 00    	jmpq   *0x20332a(%rip)        # 6040e0 <getopt@GLIBC_2.2.5>
  400db6:	68 19 00 00 00       	pushq  $0x19
  400dbb:	e9 50 fe ff ff       	jmpq   400c10 <.plt>

0000000000400dc0 <strtoul@plt>:
  400dc0:	ff 25 22 33 20 00    	jmpq   *0x203322(%rip)        # 6040e8 <strtoul@GLIBC_2.2.5>
  400dc6:	68 1a 00 00 00       	pushq  $0x1a
  400dcb:	e9 40 fe ff ff       	jmpq   400c10 <.plt>

0000000000400dd0 <exit@plt>:
  400dd0:	ff 25 1a 33 20 00    	jmpq   *0x20331a(%rip)        # 6040f0 <exit@GLIBC_2.2.5>
  400dd6:	68 1b 00 00 00       	pushq  $0x1b
  400ddb:	e9 30 fe ff ff       	jmpq   400c10 <.plt>

0000000000400de0 <connect@plt>:
  400de0:	ff 25 12 33 20 00    	jmpq   *0x203312(%rip)        # 6040f8 <connect@GLIBC_2.2.5>
  400de6:	68 1c 00 00 00       	pushq  $0x1c
  400deb:	e9 20 fe ff ff       	jmpq   400c10 <.plt>

0000000000400df0 <__fprintf_chk@plt>:
  400df0:	ff 25 0a 33 20 00    	jmpq   *0x20330a(%rip)        # 604100 <__fprintf_chk@GLIBC_2.3.4>
  400df6:	68 1d 00 00 00       	pushq  $0x1d
  400dfb:	e9 10 fe ff ff       	jmpq   400c10 <.plt>

0000000000400e00 <__sprintf_chk@plt>:
  400e00:	ff 25 02 33 20 00    	jmpq   *0x203302(%rip)        # 604108 <__sprintf_chk@GLIBC_2.3.4>
  400e06:	68 1e 00 00 00       	pushq  $0x1e
  400e0b:	e9 00 fe ff ff       	jmpq   400c10 <.plt>

0000000000400e10 <socket@plt>:
  400e10:	ff 25 fa 32 20 00    	jmpq   *0x2032fa(%rip)        # 604110 <socket@GLIBC_2.2.5>
  400e16:	68 1f 00 00 00       	pushq  $0x1f
  400e1b:	e9 f0 fd ff ff       	jmpq   400c10 <.plt>

Disassembly of section .text:

0000000000400e20 <_start>:
  400e20:	31 ed                	xor    %ebp,%ebp
  400e22:	49 89 d1             	mov    %rdx,%r9
  400e25:	5e                   	pop    %rsi
  400e26:	48 89 e2             	mov    %rsp,%rdx
  400e29:	48 83 e4 f0          	and    $0xfffffffffffffff0,%rsp
  400e2d:	50                   	push   %rax
  400e2e:	54                   	push   %rsp
  400e2f:	49 c7 c0 c0 2d 40 00 	mov    $0x402dc0,%r8
  400e36:	48 c7 c1 50 2d 40 00 	mov    $0x402d50,%rcx
  400e3d:	48 c7 c7 a1 10 40 00 	mov    $0x4010a1,%rdi
  400e44:	ff 15 a6 31 20 00    	callq  *0x2031a6(%rip)        # 603ff0 <__libc_start_main@GLIBC_2.2.5>
  400e4a:	f4                   	hlt    
  400e4b:	0f 1f 44 00 00       	nopl   0x0(%rax,%rax,1)

0000000000400e50 <_dl_relocate_static_pie>:
  400e50:	f3 c3                	repz retq 
  400e52:	66 2e 0f 1f 84 00 00 	nopw   %cs:0x0(%rax,%rax,1)
  400e59:	00 00 00 
  400e5c:	0f 1f 40 00          	nopl   0x0(%rax)

0000000000400e60 <deregister_tm_clones>:
  400e60:	55                   	push   %rbp
  400e61:	b8 58 41 60 00       	mov    $0x604158,%eax
  400e66:	48 3d 58 41 60 00    	cmp    $0x604158,%rax
  400e6c:	48 89 e5             	mov    %rsp,%rbp
  400e6f:	74 17                	je     400e88 <deregister_tm_clones+0x28>
  400e71:	b8 00 00 00 00       	mov    $0x0,%eax
  400e76:	48 85 c0             	test   %rax,%rax
  400e79:	74 0d                	je     400e88 <deregister_tm_clones+0x28>
  400e7b:	5d                   	pop    %rbp
  400e7c:	bf 58 41 60 00       	mov    $0x604158,%edi
  400e81:	ff e0                	jmpq   *%rax
  400e83:	0f 1f 44 00 00       	nopl   0x0(%rax,%rax,1)
  400e88:	5d                   	pop    %rbp
  400e89:	c3                   	retq   
  400e8a:	66 0f 1f 44 00 00    	nopw   0x0(%rax,%rax,1)

0000000000400e90 <register_tm_clones>:
  400e90:	be 58 41 60 00       	mov    $0x604158,%esi
  400e95:	55                   	push   %rbp
  400e96:	48 81 ee 58 41 60 00 	sub    $0x604158,%rsi
  400e9d:	48 89 e5             	mov    %rsp,%rbp
  400ea0:	48 c1 fe 03          	sar    $0x3,%rsi
  400ea4:	48 89 f0             	mov    %rsi,%rax
  400ea7:	48 c1 e8 3f          	shr    $0x3f,%rax
  400eab:	48 01 c6             	add    %rax,%rsi
  400eae:	48 d1 fe             	sar    %rsi
  400eb1:	74 15                	je     400ec8 <register_tm_clones+0x38>
  400eb3:	b8 00 00 00 00       	mov    $0x0,%eax
  400eb8:	48 85 c0             	test   %rax,%rax
  400ebb:	74 0b                	je     400ec8 <register_tm_clones+0x38>
  400ebd:	5d                   	pop    %rbp
  400ebe:	bf 58 41 60 00       	mov    $0x604158,%edi
  400ec3:	ff e0                	jmpq   *%rax
  400ec5:	0f 1f 00             	nopl   (%rax)
  400ec8:	5d                   	pop    %rbp
  400ec9:	c3                   	retq   
  400eca:	66 0f 1f 44 00 00    	nopw   0x0(%rax,%rax,1)

0000000000400ed0 <__do_global_dtors_aux>:
  400ed0:	80 3d b1 32 20 00 00 	cmpb   $0x0,0x2032b1(%rip)        # 604188 <completed.7697>
  400ed7:	75 17                	jne    400ef0 <__do_global_dtors_aux+0x20>
  400ed9:	55                   	push   %rbp
  400eda:	48 89 e5             	mov    %rsp,%rbp
  400edd:	e8 7e ff ff ff       	callq  400e60 <deregister_tm_clones>
  400ee2:	c6 05 9f 32 20 00 01 	movb   $0x1,0x20329f(%rip)        # 604188 <completed.7697>
  400ee9:	5d                   	pop    %rbp
  400eea:	c3                   	retq   
  400eeb:	0f 1f 44 00 00       	nopl   0x0(%rax,%rax,1)
  400ef0:	f3 c3                	repz retq 
  400ef2:	0f 1f 40 00          	nopl   0x0(%rax)
  400ef6:	66 2e 0f 1f 84 00 00 	nopw   %cs:0x0(%rax,%rax,1)
  400efd:	00 00 00 

0000000000400f00 <frame_dummy>:
  400f00:	55                   	push   %rbp
  400f01:	48 89 e5             	mov    %rsp,%rbp
  400f04:	5d                   	pop    %rbp
  400f05:	eb 89                	jmp    400e90 <register_tm_clones>

0000000000400f07 <usage>:
  400f07:	48 83 ec 08          	sub    $0x8,%rsp
  400f0b:	48 89 fa             	mov    %rdi,%rdx
  400f0e:	83 3d d3 35 20 00 00 	cmpl   $0x0,0x2035d3(%rip)        # 6044e8 <is_checker>
  400f15:	74 50                	je     400f67 <usage+0x60>
  400f17:	48 8d 35 ba 1e 00 00 	lea    0x1eba(%rip),%rsi        # 402dd8 <_IO_stdin_used+0x8>
  400f1e:	bf 01 00 00 00       	mov    $0x1,%edi
  400f23:	b8 00 00 00 00       	mov    $0x0,%eax
  400f28:	e8 63 fe ff ff       	callq  400d90 <__printf_chk@plt>
  400f2d:	48 8d 3d dc 1e 00 00 	lea    0x1edc(%rip),%rdi        # 402e10 <_IO_stdin_used+0x40>
  400f34:	e8 27 fd ff ff       	callq  400c60 <puts@plt>
  400f39:	48 8d 3d d0 1f 00 00 	lea    0x1fd0(%rip),%rdi        # 402f10 <_IO_stdin_used+0x140>
  400f40:	e8 1b fd ff ff       	callq  400c60 <puts@plt>
  400f45:	48 8d 3d ec 1e 00 00 	lea    0x1eec(%rip),%rdi        # 402e38 <_IO_stdin_used+0x68>
  400f4c:	e8 0f fd ff ff       	callq  400c60 <puts@plt>
  400f51:	48 8d 3d d2 1f 00 00 	lea    0x1fd2(%rip),%rdi        # 402f2a <_IO_stdin_used+0x15a>
  400f58:	e8 03 fd ff ff       	callq  400c60 <puts@plt>
  400f5d:	bf 00 00 00 00       	mov    $0x0,%edi
  400f62:	e8 69 fe ff ff       	callq  400dd0 <exit@plt>
  400f67:	48 8d 35 d8 1f 00 00 	lea    0x1fd8(%rip),%rsi        # 402f46 <_IO_stdin_used+0x176>
  400f6e:	bf 01 00 00 00       	mov    $0x1,%edi
  400f73:	b8 00 00 00 00       	mov    $0x0,%eax
  400f78:	e8 13 fe ff ff       	callq  400d90 <__printf_chk@plt>
  400f7d:	48 8d 3d dc 1e 00 00 	lea    0x1edc(%rip),%rdi        # 402e60 <_IO_stdin_used+0x90>
  400f84:	e8 d7 fc ff ff       	callq  400c60 <puts@plt>
  400f89:	48 8d 3d f8 1e 00 00 	lea    0x1ef8(%rip),%rdi        # 402e88 <_IO_stdin_used+0xb8>
  400f90:	e8 cb fc ff ff       	callq  400c60 <puts@plt>
  400f95:	48 8d 3d c8 1f 00 00 	lea    0x1fc8(%rip),%rdi        # 402f64 <_IO_stdin_used+0x194>
  400f9c:	e8 bf fc ff ff       	callq  400c60 <puts@plt>
  400fa1:	eb ba                	jmp    400f5d <usage+0x56>

0000000000400fa3 <initialize_target>:
  400fa3:	55                   	push   %rbp
  400fa4:	53                   	push   %rbx
  400fa5:	48 81 ec 18 20 00 00 	sub    $0x2018,%rsp
  400fac:	89 f5                	mov    %esi,%ebp
  400fae:	64 48 8b 04 25 28 00 	mov    %fs:0x28,%rax
  400fb5:	00 00 
  400fb7:	48 89 84 24 08 20 00 	mov    %rax,0x2008(%rsp)
  400fbe:	00 
  400fbf:	31 c0                	xor    %eax,%eax
  400fc1:	89 3d 11 35 20 00    	mov    %edi,0x203511(%rip)        # 6044d8 <check_level>
  400fc7:	8b 3d 5b 31 20 00    	mov    0x20315b(%rip),%edi        # 604128 <target_id>
  400fcd:	e8 59 1d 00 00       	callq  402d2b <gencookie>
  400fd2:	89 05 0c 35 20 00    	mov    %eax,0x20350c(%rip)        # 6044e4 <cookie>
  400fd8:	89 c7                	mov    %eax,%edi
  400fda:	e8 4c 1d 00 00       	callq  402d2b <gencookie>
  400fdf:	89 05 fb 34 20 00    	mov    %eax,0x2034fb(%rip)        # 6044e0 <authkey>
  400fe5:	8b 05 3d 31 20 00    	mov    0x20313d(%rip),%eax        # 604128 <target_id>
  400feb:	8d 78 01             	lea    0x1(%rax),%edi
  400fee:	e8 3d fc ff ff       	callq  400c30 <srandom@plt>
  400ff3:	e8 68 fd ff ff       	callq  400d60 <random@plt>
  400ff8:	89 c7                	mov    %eax,%edi
  400ffa:	e8 8d 02 00 00       	callq  40128c <scramble>
  400fff:	89 c3                	mov    %eax,%ebx
  401001:	85 ed                	test   %ebp,%ebp
  401003:	75 50                	jne    401055 <initialize_target+0xb2>
  401005:	b8 00 00 00 00       	mov    $0x0,%eax
  40100a:	01 d8                	add    %ebx,%eax
  40100c:	0f b7 c0             	movzwl %ax,%eax
  40100f:	8d 04 c5 00 01 00 00 	lea    0x100(,%rax,8),%eax
  401016:	89 c0                	mov    %eax,%eax
  401018:	48 89 05 29 31 20 00 	mov    %rax,0x203129(%rip)        # 604148 <buf_offset>
  40101f:	c6 05 e2 40 20 00 63 	movb   $0x63,0x2040e2(%rip)        # 605108 <target_prefix>
  401026:	83 3d 23 31 20 00 00 	cmpl   $0x0,0x203123(%rip)        # 604150 <notify>
  40102d:	74 09                	je     401038 <initialize_target+0x95>
  40102f:	83 3d b2 34 20 00 00 	cmpl   $0x0,0x2034b2(%rip)        # 6044e8 <is_checker>
  401036:	74 35                	je     40106d <initialize_target+0xca>
  401038:	48 8b 84 24 08 20 00 	mov    0x2008(%rsp),%rax
  40103f:	00 
  401040:	64 48 33 04 25 28 00 	xor    %fs:0x28,%rax
  401047:	00 00 
  401049:	75 51                	jne    40109c <initialize_target+0xf9>
  40104b:	48 81 c4 18 20 00 00 	add    $0x2018,%rsp
  401052:	5b                   	pop    %rbx
  401053:	5d                   	pop    %rbp
  401054:	c3                   	retq   
  401055:	bf 00 00 00 00       	mov    $0x0,%edi
  40105a:	e8 e1 fc ff ff       	callq  400d40 <time@plt>
  40105f:	89 c7                	mov    %eax,%edi
  401061:	e8 ca fb ff ff       	callq  400c30 <srandom@plt>
  401066:	e8 f5 fc ff ff       	callq  400d60 <random@plt>
  40106b:	eb 9d                	jmp    40100a <initialize_target+0x67>
  40106d:	48 89 e7             	mov    %rsp,%rdi
  401070:	e8 e6 19 00 00       	callq  402a5b <init_driver>
  401075:	85 c0                	test   %eax,%eax
  401077:	79 bf                	jns    401038 <initialize_target+0x95>
  401079:	48 89 e2             	mov    %rsp,%rdx
  40107c:	48 8d 35 35 1e 00 00 	lea    0x1e35(%rip),%rsi        # 402eb8 <_IO_stdin_used+0xe8>
  401083:	bf 01 00 00 00       	mov    $0x1,%edi
  401088:	b8 00 00 00 00       	mov    $0x0,%eax
  40108d:	e8 fe fc ff ff       	callq  400d90 <__printf_chk@plt>
  401092:	bf 08 00 00 00       	mov    $0x8,%edi
  401097:	e8 34 fd ff ff       	callq  400dd0 <exit@plt>
  40109c:	e8 df fb ff ff       	callq  400c80 <__stack_chk_fail@plt>

00000000004010a1 <main>:
  4010a1:	41 56                	push   %r14
  4010a3:	41 55                	push   %r13
  4010a5:	41 54                	push   %r12
  4010a7:	55                   	push   %rbp
  4010a8:	53                   	push   %rbx
  4010a9:	41 89 fc             	mov    %edi,%r12d
  4010ac:	48 89 f3             	mov    %rsi,%rbx
  4010af:	48 c7 c6 80 1d 40 00 	mov    $0x401d80,%rsi
  4010b6:	bf 0b 00 00 00       	mov    $0xb,%edi
  4010bb:	e8 20 fc ff ff       	callq  400ce0 <signal@plt>
  4010c0:	48 c7 c6 2c 1d 40 00 	mov    $0x401d2c,%rsi
  4010c7:	bf 07 00 00 00       	mov    $0x7,%edi
  4010cc:	e8 0f fc ff ff       	callq  400ce0 <signal@plt>
  4010d1:	48 c7 c6 d4 1d 40 00 	mov    $0x401dd4,%rsi
  4010d8:	bf 04 00 00 00       	mov    $0x4,%edi
  4010dd:	e8 fe fb ff ff       	callq  400ce0 <signal@plt>
  4010e2:	83 3d ff 33 20 00 00 	cmpl   $0x0,0x2033ff(%rip)        # 6044e8 <is_checker>
  4010e9:	75 26                	jne    401111 <main+0x70>
  4010eb:	48 8d 2d 8b 1e 00 00 	lea    0x1e8b(%rip),%rbp        # 402f7d <_IO_stdin_used+0x1ad>
  4010f2:	48 8b 05 67 30 20 00 	mov    0x203067(%rip),%rax        # 604160 <stdin@@GLIBC_2.2.5>
  4010f9:	48 89 05 d0 33 20 00 	mov    %rax,0x2033d0(%rip)        # 6044d0 <infile>
  401100:	41 bd 00 00 00 00    	mov    $0x0,%r13d
  401106:	41 be 00 00 00 00    	mov    $0x0,%r14d
  40110c:	e9 8d 00 00 00       	jmpq   40119e <main+0xfd>
  401111:	48 c7 c6 28 1e 40 00 	mov    $0x401e28,%rsi
  401118:	bf 0e 00 00 00       	mov    $0xe,%edi
  40111d:	e8 be fb ff ff       	callq  400ce0 <signal@plt>
  401122:	bf 05 00 00 00       	mov    $0x5,%edi
  401127:	e8 84 fb ff ff       	callq  400cb0 <alarm@plt>
  40112c:	48 8d 2d 4f 1e 00 00 	lea    0x1e4f(%rip),%rbp        # 402f82 <_IO_stdin_used+0x1b2>
  401133:	eb bd                	jmp    4010f2 <main+0x51>
  401135:	48 8b 3b             	mov    (%rbx),%rdi
  401138:	e8 ca fd ff ff       	callq  400f07 <usage>
  40113d:	48 8d 35 91 20 00 00 	lea    0x2091(%rip),%rsi        # 4031d5 <_IO_stdin_used+0x405>
  401144:	48 8b 3d 1d 30 20 00 	mov    0x20301d(%rip),%rdi        # 604168 <optarg@@GLIBC_2.2.5>
  40114b:	e8 50 fc ff ff       	callq  400da0 <fopen@plt>
  401150:	48 89 05 79 33 20 00 	mov    %rax,0x203379(%rip)        # 6044d0 <infile>
  401157:	48 85 c0             	test   %rax,%rax
  40115a:	75 42                	jne    40119e <main+0xfd>
  40115c:	48 8b 0d 05 30 20 00 	mov    0x203005(%rip),%rcx        # 604168 <optarg@@GLIBC_2.2.5>
  401163:	48 8d 15 20 1e 00 00 	lea    0x1e20(%rip),%rdx        # 402f8a <_IO_stdin_used+0x1ba>
  40116a:	be 01 00 00 00       	mov    $0x1,%esi
  40116f:	48 8b 3d 0a 30 20 00 	mov    0x20300a(%rip),%rdi        # 604180 <stderr@@GLIBC_2.2.5>
  401176:	e8 75 fc ff ff       	callq  400df0 <__fprintf_chk@plt>
  40117b:	b8 01 00 00 00       	mov    $0x1,%eax
  401180:	e9 d9 00 00 00       	jmpq   40125e <main+0x1bd>
  401185:	ba 10 00 00 00       	mov    $0x10,%edx
  40118a:	be 00 00 00 00       	mov    $0x0,%esi
  40118f:	48 8b 3d d2 2f 20 00 	mov    0x202fd2(%rip),%rdi        # 604168 <optarg@@GLIBC_2.2.5>
  401196:	e8 25 fc ff ff       	callq  400dc0 <strtoul@plt>
  40119b:	41 89 c6             	mov    %eax,%r14d
  40119e:	48 89 ea             	mov    %rbp,%rdx
  4011a1:	48 89 de             	mov    %rbx,%rsi
  4011a4:	44 89 e7             	mov    %r12d,%edi
  4011a7:	e8 04 fc ff ff       	callq  400db0 <getopt@plt>
  4011ac:	3c ff                	cmp    $0xff,%al
  4011ae:	74 62                	je     401212 <main+0x171>
  4011b0:	0f be d0             	movsbl %al,%edx
  4011b3:	83 e8 61             	sub    $0x61,%eax
  4011b6:	3c 10                	cmp    $0x10,%al
  4011b8:	77 3a                	ja     4011f4 <main+0x153>
  4011ba:	0f b6 c0             	movzbl %al,%eax
  4011bd:	48 8d 0d 04 1e 00 00 	lea    0x1e04(%rip),%rcx        # 402fc8 <_IO_stdin_used+0x1f8>
  4011c4:	48 63 04 81          	movslq (%rcx,%rax,4),%rax
  4011c8:	48 01 c8             	add    %rcx,%rax
  4011cb:	ff e0                	jmpq   *%rax
  4011cd:	ba 0a 00 00 00       	mov    $0xa,%edx
  4011d2:	be 00 00 00 00       	mov    $0x0,%esi
  4011d7:	48 8b 3d 8a 2f 20 00 	mov    0x202f8a(%rip),%rdi        # 604168 <optarg@@GLIBC_2.2.5>
  4011de:	e8 3d fb ff ff       	callq  400d20 <strtol@plt>
  4011e3:	41 89 c5             	mov    %eax,%r13d
  4011e6:	eb b6                	jmp    40119e <main+0xfd>
  4011e8:	c7 05 5e 2f 20 00 00 	movl   $0x0,0x202f5e(%rip)        # 604150 <notify>
  4011ef:	00 00 00 
  4011f2:	eb aa                	jmp    40119e <main+0xfd>
  4011f4:	48 8d 35 ac 1d 00 00 	lea    0x1dac(%rip),%rsi        # 402fa7 <_IO_stdin_used+0x1d7>
  4011fb:	bf 01 00 00 00       	mov    $0x1,%edi
  401200:	b8 00 00 00 00       	mov    $0x0,%eax
  401205:	e8 86 fb ff ff       	callq  400d90 <__printf_chk@plt>
  40120a:	48 8b 3b             	mov    (%rbx),%rdi
  40120d:	e8 f5 fc ff ff       	callq  400f07 <usage>
  401212:	be 00 00 00 00       	mov    $0x0,%esi
  401217:	44 89 ef             	mov    %r13d,%edi
  40121a:	e8 84 fd ff ff       	callq  400fa3 <initialize_target>
  40121f:	83 3d c2 32 20 00 00 	cmpl   $0x0,0x2032c2(%rip)        # 6044e8 <is_checker>
  401226:	74 09                	je     401231 <main+0x190>
  401228:	44 39 35 b1 32 20 00 	cmp    %r14d,0x2032b1(%rip)        # 6044e0 <authkey>
  40122f:	75 36                	jne    401267 <main+0x1c6>
  401231:	8b 15 ad 32 20 00    	mov    0x2032ad(%rip),%edx        # 6044e4 <cookie>
  401237:	48 8d 35 7c 1d 00 00 	lea    0x1d7c(%rip),%rsi        # 402fba <_IO_stdin_used+0x1ea>
  40123e:	bf 01 00 00 00       	mov    $0x1,%edi
  401243:	b8 00 00 00 00       	mov    $0x0,%eax
  401248:	e8 43 fb ff ff       	callq  400d90 <__printf_chk@plt>
  40124d:	48 8b 3d f4 2e 20 00 	mov    0x202ef4(%rip),%rdi        # 604148 <buf_offset>
  401254:	e8 db 0c 00 00       	callq  401f34 <stable_launch>
  401259:	b8 00 00 00 00       	mov    $0x0,%eax
  40125e:	5b                   	pop    %rbx
  40125f:	5d                   	pop    %rbp
  401260:	41 5c                	pop    %r12
  401262:	41 5d                	pop    %r13
  401264:	41 5e                	pop    %r14
  401266:	c3                   	retq   
  401267:	44 89 f2             	mov    %r14d,%edx
  40126a:	48 8d 35 6f 1c 00 00 	lea    0x1c6f(%rip),%rsi        # 402ee0 <_IO_stdin_used+0x110>
  401271:	bf 01 00 00 00       	mov    $0x1,%edi
  401276:	b8 00 00 00 00       	mov    $0x0,%eax
  40127b:	e8 10 fb ff ff       	callq  400d90 <__printf_chk@plt>
  401280:	b8 00 00 00 00       	mov    $0x0,%eax
  401285:	e8 02 07 00 00       	callq  40198c <check_fail>
  40128a:	eb a5                	jmp    401231 <main+0x190>

000000000040128c <scramble>:
  40128c:	48 83 ec 38          	sub    $0x38,%rsp
  401290:	64 48 8b 04 25 28 00 	mov    %fs:0x28,%rax
  401297:	00 00 
  401299:	48 89 44 24 28       	mov    %rax,0x28(%rsp)
  40129e:	31 c0                	xor    %eax,%eax
  4012a0:	eb 10                	jmp    4012b2 <scramble+0x26>
  4012a2:	69 d0 3f f2 00 00    	imul   $0xf23f,%eax,%edx
  4012a8:	01 fa                	add    %edi,%edx
  4012aa:	89 c1                	mov    %eax,%ecx
  4012ac:	89 14 8c             	mov    %edx,(%rsp,%rcx,4)
  4012af:	83 c0 01             	add    $0x1,%eax
  4012b2:	83 f8 09             	cmp    $0x9,%eax
  4012b5:	76 eb                	jbe    4012a2 <scramble+0x16>
  4012b7:	8b 44 24 24          	mov    0x24(%rsp),%eax
  4012bb:	69 c0 7a c2 00 00    	imul   $0xc27a,%eax,%eax
  4012c1:	89 44 24 24          	mov    %eax,0x24(%rsp)
  4012c5:	8b 44 24 18          	mov    0x18(%rsp),%eax
  4012c9:	69 c0 bc c5 00 00    	imul   $0xc5bc,%eax,%eax
  4012cf:	89 44 24 18          	mov    %eax,0x18(%rsp)
  4012d3:	8b 44 24 14          	mov    0x14(%rsp),%eax
  4012d7:	69 c0 c4 8b 00 00    	imul   $0x8bc4,%eax,%eax
  4012dd:	89 44 24 14          	mov    %eax,0x14(%rsp)
  4012e1:	8b 44 24 0c          	mov    0xc(%rsp),%eax
  4012e5:	69 c0 22 46 00 00    	imul   $0x4622,%eax,%eax
  4012eb:	89 44 24 0c          	mov    %eax,0xc(%rsp)
  4012ef:	8b 44 24 0c          	mov    0xc(%rsp),%eax
  4012f3:	69 c0 4f a7 00 00    	imul   $0xa74f,%eax,%eax
  4012f9:	89 44 24 0c          	mov    %eax,0xc(%rsp)
  4012fd:	8b 44 24 20          	mov    0x20(%rsp),%eax
  401301:	69 c0 e7 71 00 00    	imul   $0x71e7,%eax,%eax
  401307:	89 44 24 20          	mov    %eax,0x20(%rsp)
  40130b:	8b 44 24 08          	mov    0x8(%rsp),%eax
  40130f:	69 c0 14 0e 00 00    	imul   $0xe14,%eax,%eax
  401315:	89 44 24 08          	mov    %eax,0x8(%rsp)
  401319:	8b 44 24 14          	mov    0x14(%rsp),%eax
  40131d:	69 c0 9b 14 00 00    	imul   $0x149b,%eax,%eax
  401323:	89 44 24 14          	mov    %eax,0x14(%rsp)
  401327:	8b 44 24 1c          	mov    0x1c(%rsp),%eax
  40132b:	69 c0 e2 a1 00 00    	imul   $0xa1e2,%eax,%eax
  401331:	89 44 24 1c          	mov    %eax,0x1c(%rsp)
  401335:	8b 44 24 1c          	mov    0x1c(%rsp),%eax
  401339:	69 c0 b8 18 00 00    	imul   $0x18b8,%eax,%eax
  40133f:	89 44 24 1c          	mov    %eax,0x1c(%rsp)
  401343:	8b 44 24 24          	mov    0x24(%rsp),%eax
  401347:	69 c0 4b 93 00 00    	imul   $0x934b,%eax,%eax
  40134d:	89 44 24 24          	mov    %eax,0x24(%rsp)
  401351:	8b 44 24 10          	mov    0x10(%rsp),%eax
  401355:	69 c0 50 cc 00 00    	imul   $0xcc50,%eax,%eax
  40135b:	89 44 24 10          	mov    %eax,0x10(%rsp)
  40135f:	8b 44 24 24          	mov    0x24(%rsp),%eax
  401363:	69 c0 1b 8d 00 00    	imul   $0x8d1b,%eax,%eax
  401369:	89 44 24 24          	mov    %eax,0x24(%rsp)
  40136d:	8b 44 24 24          	mov    0x24(%rsp),%eax
  401371:	69 c0 ce 62 00 00    	imul   $0x62ce,%eax,%eax
  401377:	89 44 24 24          	mov    %eax,0x24(%rsp)
  40137b:	8b 44 24 04          	mov    0x4(%rsp),%eax
  40137f:	69 c0 4a 1b 00 00    	imul   $0x1b4a,%eax,%eax
  401385:	89 44 24 04          	mov    %eax,0x4(%rsp)
  401389:	8b 44 24 08          	mov    0x8(%rsp),%eax
  40138d:	69 c0 de 60 00 00    	imul   $0x60de,%eax,%eax
  401393:	89 44 24 08          	mov    %eax,0x8(%rsp)
  401397:	8b 44 24 20          	mov    0x20(%rsp),%eax
  40139b:	69 c0 3a 7a 00 00    	imul   $0x7a3a,%eax,%eax
  4013a1:	89 44 24 20          	mov    %eax,0x20(%rsp)
  4013a5:	8b 04 24             	mov    (%rsp),%eax
  4013a8:	69 c0 c8 08 00 00    	imul   $0x8c8,%eax,%eax
  4013ae:	89 04 24             	mov    %eax,(%rsp)
  4013b1:	8b 44 24 10          	mov    0x10(%rsp),%eax
  4013b5:	69 c0 1f 86 00 00    	imul   $0x861f,%eax,%eax
  4013bb:	89 44 24 10          	mov    %eax,0x10(%rsp)
  4013bf:	8b 44 24 20          	mov    0x20(%rsp),%eax
  4013c3:	69 c0 75 59 00 00    	imul   $0x5975,%eax,%eax
  4013c9:	89 44 24 20          	mov    %eax,0x20(%rsp)
  4013cd:	8b 44 24 20          	mov    0x20(%rsp),%eax
  4013d1:	69 c0 ce 36 00 00    	imul   $0x36ce,%eax,%eax
  4013d7:	89 44 24 20          	mov    %eax,0x20(%rsp)
  4013db:	8b 44 24 08          	mov    0x8(%rsp),%eax
  4013df:	69 c0 09 e7 00 00    	imul   $0xe709,%eax,%eax
  4013e5:	89 44 24 08          	mov    %eax,0x8(%rsp)
  4013e9:	8b 44 24 08          	mov    0x8(%rsp),%eax
  4013ed:	69 c0 ae f1 00 00    	imul   $0xf1ae,%eax,%eax
  4013f3:	89 44 24 08          	mov    %eax,0x8(%rsp)
  4013f7:	8b 44 24 08          	mov    0x8(%rsp),%eax
  4013fb:	6b c0 6e             	imul   $0x6e,%eax,%eax
  4013fe:	89 44 24 08          	mov    %eax,0x8(%rsp)
  401402:	8b 44 24 18          	mov    0x18(%rsp),%eax
  401406:	69 c0 0b 06 00 00    	imul   $0x60b,%eax,%eax
  40140c:	89 44 24 18          	mov    %eax,0x18(%rsp)
  401410:	8b 44 24 18          	mov    0x18(%rsp),%eax
  401414:	69 c0 11 25 00 00    	imul   $0x2511,%eax,%eax
  40141a:	89 44 24 18          	mov    %eax,0x18(%rsp)
  40141e:	8b 44 24 10          	mov    0x10(%rsp),%eax
  401422:	69 c0 16 97 00 00    	imul   $0x9716,%eax,%eax
  401428:	89 44 24 10          	mov    %eax,0x10(%rsp)
  40142c:	8b 44 24 1c          	mov    0x1c(%rsp),%eax
  401430:	69 c0 e7 d9 00 00    	imul   $0xd9e7,%eax,%eax
  401436:	89 44 24 1c          	mov    %eax,0x1c(%rsp)
  40143a:	8b 44 24 1c          	mov    0x1c(%rsp),%eax
  40143e:	69 c0 f3 f5 00 00    	imul   $0xf5f3,%eax,%eax
  401444:	89 44 24 1c          	mov    %eax,0x1c(%rsp)
  401448:	8b 44 24 14          	mov    0x14(%rsp),%eax
  40144c:	69 c0 d0 92 00 00    	imul   $0x92d0,%eax,%eax
  401452:	89 44 24 14          	mov    %eax,0x14(%rsp)
  401456:	8b 04 24             	mov    (%rsp),%eax
  401459:	69 c0 56 3f 00 00    	imul   $0x3f56,%eax,%eax
  40145f:	89 04 24             	mov    %eax,(%rsp)
  401462:	8b 44 24 04          	mov    0x4(%rsp),%eax
  401466:	69 c0 01 ef 00 00    	imul   $0xef01,%eax,%eax
  40146c:	89 44 24 04          	mov    %eax,0x4(%rsp)
  401470:	8b 44 24 24          	mov    0x24(%rsp),%eax
  401474:	69 c0 48 1a 00 00    	imul   $0x1a48,%eax,%eax
  40147a:	89 44 24 24          	mov    %eax,0x24(%rsp)
  40147e:	8b 44 24 0c          	mov    0xc(%rsp),%eax
  401482:	69 c0 8f bf 00 00    	imul   $0xbf8f,%eax,%eax
  401488:	89 44 24 0c          	mov    %eax,0xc(%rsp)
  40148c:	8b 44 24 1c          	mov    0x1c(%rsp),%eax
  401490:	69 c0 b4 46 00 00    	imul   $0x46b4,%eax,%eax
  401496:	89 44 24 1c          	mov    %eax,0x1c(%rsp)
  40149a:	8b 44 24 10          	mov    0x10(%rsp),%eax
  40149e:	69 c0 d5 cd 00 00    	imul   $0xcdd5,%eax,%eax
  4014a4:	89 44 24 10          	mov    %eax,0x10(%rsp)
  4014a8:	8b 44 24 08          	mov    0x8(%rsp),%eax
  4014ac:	69 c0 61 e4 00 00    	imul   $0xe461,%eax,%eax
  4014b2:	89 44 24 08          	mov    %eax,0x8(%rsp)
  4014b6:	8b 44 24 20          	mov    0x20(%rsp),%eax
  4014ba:	69 c0 64 c2 00 00    	imul   $0xc264,%eax,%eax
  4014c0:	89 44 24 20          	mov    %eax,0x20(%rsp)
  4014c4:	8b 44 24 18          	mov    0x18(%rsp),%eax
  4014c8:	69 c0 82 b0 00 00    	imul   $0xb082,%eax,%eax
  4014ce:	89 44 24 18          	mov    %eax,0x18(%rsp)
  4014d2:	8b 44 24 18          	mov    0x18(%rsp),%eax
  4014d6:	69 c0 a0 69 00 00    	imul   $0x69a0,%eax,%eax
  4014dc:	89 44 24 18          	mov    %eax,0x18(%rsp)
  4014e0:	8b 44 24 10          	mov    0x10(%rsp),%eax
  4014e4:	69 c0 f9 db 00 00    	imul   $0xdbf9,%eax,%eax
  4014ea:	89 44 24 10          	mov    %eax,0x10(%rsp)
  4014ee:	8b 44 24 24          	mov    0x24(%rsp),%eax
  4014f2:	69 c0 e4 4f 00 00    	imul   $0x4fe4,%eax,%eax
  4014f8:	89 44 24 24          	mov    %eax,0x24(%rsp)
  4014fc:	8b 44 24 1c          	mov    0x1c(%rsp),%eax
  401500:	69 c0 14 80 00 00    	imul   $0x8014,%eax,%eax
  401506:	89 44 24 1c          	mov    %eax,0x1c(%rsp)
  40150a:	8b 44 24 14          	mov    0x14(%rsp),%eax
  40150e:	69 c0 40 97 00 00    	imul   $0x9740,%eax,%eax
  401514:	89 44 24 14          	mov    %eax,0x14(%rsp)
  401518:	8b 44 24 18          	mov    0x18(%rsp),%eax
  40151c:	69 c0 80 66 00 00    	imul   $0x6680,%eax,%eax
  401522:	89 44 24 18          	mov    %eax,0x18(%rsp)
  401526:	8b 44 24 14          	mov    0x14(%rsp),%eax
  40152a:	69 c0 45 87 00 00    	imul   $0x8745,%eax,%eax
  401530:	89 44 24 14          	mov    %eax,0x14(%rsp)
  401534:	8b 44 24 08          	mov    0x8(%rsp),%eax
  401538:	69 c0 be 1d 00 00    	imul   $0x1dbe,%eax,%eax
  40153e:	89 44 24 08          	mov    %eax,0x8(%rsp)
  401542:	8b 44 24 18          	mov    0x18(%rsp),%eax
  401546:	69 c0 68 5f 00 00    	imul   $0x5f68,%eax,%eax
  40154c:	89 44 24 18          	mov    %eax,0x18(%rsp)
  401550:	8b 44 24 24          	mov    0x24(%rsp),%eax
  401554:	69 c0 10 6e 00 00    	imul   $0x6e10,%eax,%eax
  40155a:	89 44 24 24          	mov    %eax,0x24(%rsp)
  40155e:	8b 44 24 20          	mov    0x20(%rsp),%eax
  401562:	69 c0 6d d8 00 00    	imul   $0xd86d,%eax,%eax
  401568:	89 44 24 20          	mov    %eax,0x20(%rsp)
  40156c:	8b 44 24 10          	mov    0x10(%rsp),%eax
  401570:	69 c0 fc 37 00 00    	imul   $0x37fc,%eax,%eax
  401576:	89 44 24 10          	mov    %eax,0x10(%rsp)
  40157a:	8b 44 24 10          	mov    0x10(%rsp),%eax
  40157e:	69 c0 46 32 00 00    	imul   $0x3246,%eax,%eax
  401584:	89 44 24 10          	mov    %eax,0x10(%rsp)
  401588:	8b 44 24 08          	mov    0x8(%rsp),%eax
  40158c:	69 c0 21 5b 00 00    	imul   $0x5b21,%eax,%eax
  401592:	89 44 24 08          	mov    %eax,0x8(%rsp)
  401596:	8b 44 24 0c          	mov    0xc(%rsp),%eax
  40159a:	69 c0 6e f2 00 00    	imul   $0xf26e,%eax,%eax
  4015a0:	89 44 24 0c          	mov    %eax,0xc(%rsp)
  4015a4:	8b 44 24 18          	mov    0x18(%rsp),%eax
  4015a8:	69 c0 7d b7 00 00    	imul   $0xb77d,%eax,%eax
  4015ae:	89 44 24 18          	mov    %eax,0x18(%rsp)
  4015b2:	8b 44 24 10          	mov    0x10(%rsp),%eax
  4015b6:	69 c0 31 c2 00 00    	imul   $0xc231,%eax,%eax
  4015bc:	89 44 24 10          	mov    %eax,0x10(%rsp)
  4015c0:	8b 44 24 10          	mov    0x10(%rsp),%eax
  4015c4:	69 c0 c0 ea 00 00    	imul   $0xeac0,%eax,%eax
  4015ca:	89 44 24 10          	mov    %eax,0x10(%rsp)
  4015ce:	8b 44 24 10          	mov    0x10(%rsp),%eax
  4015d2:	69 c0 85 06 00 00    	imul   $0x685,%eax,%eax
  4015d8:	89 44 24 10          	mov    %eax,0x10(%rsp)
  4015dc:	8b 44 24 0c          	mov    0xc(%rsp),%eax
  4015e0:	69 c0 e1 3b 00 00    	imul   $0x3be1,%eax,%eax
  4015e6:	89 44 24 0c          	mov    %eax,0xc(%rsp)
  4015ea:	8b 04 24             	mov    (%rsp),%eax
  4015ed:	69 c0 dc e0 00 00    	imul   $0xe0dc,%eax,%eax
  4015f3:	89 04 24             	mov    %eax,(%rsp)
  4015f6:	8b 44 24 14          	mov    0x14(%rsp),%eax
  4015fa:	69 c0 d5 c7 00 00    	imul   $0xc7d5,%eax,%eax
  401600:	89 44 24 14          	mov    %eax,0x14(%rsp)
  401604:	8b 44 24 1c          	mov    0x1c(%rsp),%eax
  401608:	69 c0 39 48 00 00    	imul   $0x4839,%eax,%eax
  40160e:	89 44 24 1c          	mov    %eax,0x1c(%rsp)
  401612:	8b 44 24 14          	mov    0x14(%rsp),%eax
  401616:	69 c0 67 de 00 00    	imul   $0xde67,%eax,%eax
  40161c:	89 44 24 14          	mov    %eax,0x14(%rsp)
  401620:	8b 44 24 04          	mov    0x4(%rsp),%eax
  401624:	69 c0 99 1d 00 00    	imul   $0x1d99,%eax,%eax
  40162a:	89 44 24 04          	mov    %eax,0x4(%rsp)
  40162e:	8b 44 24 10          	mov    0x10(%rsp),%eax
  401632:	69 c0 98 c6 00 00    	imul   $0xc698,%eax,%eax
  401638:	89 44 24 10          	mov    %eax,0x10(%rsp)
  40163c:	8b 44 24 0c          	mov    0xc(%rsp),%eax
  401640:	69 c0 3b 01 00 00    	imul   $0x13b,%eax,%eax
  401646:	89 44 24 0c          	mov    %eax,0xc(%rsp)
  40164a:	8b 44 24 1c          	mov    0x1c(%rsp),%eax
  40164e:	69 c0 48 9c 00 00    	imul   $0x9c48,%eax,%eax
  401654:	89 44 24 1c          	mov    %eax,0x1c(%rsp)
  401658:	8b 44 24 1c          	mov    0x1c(%rsp),%eax
  40165c:	69 c0 f3 1a 00 00    	imul   $0x1af3,%eax,%eax
  401662:	89 44 24 1c          	mov    %eax,0x1c(%rsp)
  401666:	8b 44 24 0c          	mov    0xc(%rsp),%eax
  40166a:	69 c0 2c 28 00 00    	imul   $0x282c,%eax,%eax
  401670:	89 44 24 0c          	mov    %eax,0xc(%rsp)
  401674:	8b 44 24 0c          	mov    0xc(%rsp),%eax
  401678:	69 c0 0d 03 00 00    	imul   $0x30d,%eax,%eax
  40167e:	89 44 24 0c          	mov    %eax,0xc(%rsp)
  401682:	8b 44 24 08          	mov    0x8(%rsp),%eax
  401686:	69 c0 6f 69 00 00    	imul   $0x696f,%eax,%eax
  40168c:	89 44 24 08          	mov    %eax,0x8(%rsp)
  401690:	8b 44 24 18          	mov    0x18(%rsp),%eax
  401694:	69 c0 1f 73 00 00    	imul   $0x731f,%eax,%eax
  40169a:	89 44 24 18          	mov    %eax,0x18(%rsp)
  40169e:	8b 44 24 10          	mov    0x10(%rsp),%eax
  4016a2:	69 c0 54 d7 00 00    	imul   $0xd754,%eax,%eax
  4016a8:	89 44 24 10          	mov    %eax,0x10(%rsp)
  4016ac:	8b 04 24             	mov    (%rsp),%eax
  4016af:	69 c0 04 bf 00 00    	imul   $0xbf04,%eax,%eax
  4016b5:	89 04 24             	mov    %eax,(%rsp)
  4016b8:	8b 44 24 10          	mov    0x10(%rsp),%eax
  4016bc:	69 c0 69 17 00 00    	imul   $0x1769,%eax,%eax
  4016c2:	89 44 24 10          	mov    %eax,0x10(%rsp)
  4016c6:	8b 04 24             	mov    (%rsp),%eax
  4016c9:	69 c0 98 b5 00 00    	imul   $0xb598,%eax,%eax
  4016cf:	89 04 24             	mov    %eax,(%rsp)
  4016d2:	8b 54 24 1c          	mov    0x1c(%rsp),%edx
  4016d6:	89 d0                	mov    %edx,%eax
  4016d8:	c1 e0 0b             	shl    $0xb,%eax
  4016db:	01 d0                	add    %edx,%eax
  4016dd:	89 44 24 1c          	mov    %eax,0x1c(%rsp)
  4016e1:	8b 44 24 1c          	mov    0x1c(%rsp),%eax
  4016e5:	69 c0 d1 c4 00 00    	imul   $0xc4d1,%eax,%eax
  4016eb:	89 44 24 1c          	mov    %eax,0x1c(%rsp)
  4016ef:	ba 00 00 00 00       	mov    $0x0,%edx
  4016f4:	b8 00 00 00 00       	mov    $0x0,%eax
  4016f9:	eb 0a                	jmp    401705 <scramble+0x479>
  4016fb:	89 d1                	mov    %edx,%ecx
  4016fd:	8b 0c 8c             	mov    (%rsp,%rcx,4),%ecx
  401700:	01 c8                	add    %ecx,%eax
  401702:	83 c2 01             	add    $0x1,%edx
  401705:	83 fa 09             	cmp    $0x9,%edx
  401708:	76 f1                	jbe    4016fb <scramble+0x46f>
  40170a:	48 8b 74 24 28       	mov    0x28(%rsp),%rsi
  40170f:	64 48 33 34 25 28 00 	xor    %fs:0x28,%rsi
  401716:	00 00 
  401718:	75 05                	jne    40171f <scramble+0x493>
  40171a:	48 83 c4 38          	add    $0x38,%rsp
  40171e:	c3                   	retq   
  40171f:	e8 5c f5 ff ff       	callq  400c80 <__stack_chk_fail@plt>

0000000000401724 <getbuf>:
  401724:	48 83 ec 38          	sub    $0x38,%rsp
  401728:	48 89 e7             	mov    %rsp,%rdi
  40172b:	e8 94 02 00 00       	callq  4019c4 <Gets>
  401730:	b8 01 00 00 00       	mov    $0x1,%eax
  401735:	48 83 c4 38          	add    $0x38,%rsp
  401739:	c3                   	retq   

000000000040173a <touch1>:
  40173a:	48 83 ec 08          	sub    $0x8,%rsp
  40173e:	c7 05 94 2d 20 00 01 	movl   $0x1,0x202d94(%rip)        # 6044dc <vlevel>
  401745:	00 00 00 
  401748:	48 8d 3d db 18 00 00 	lea    0x18db(%rip),%rdi        # 40302a <_IO_stdin_used+0x25a>
  40174f:	e8 0c f5 ff ff       	callq  400c60 <puts@plt>
  401754:	bf 01 00 00 00       	mov    $0x1,%edi
  401759:	e8 d6 04 00 00       	callq  401c34 <validate>
  40175e:	bf 00 00 00 00       	mov    $0x0,%edi
  401763:	e8 68 f6 ff ff       	callq  400dd0 <exit@plt>

0000000000401768 <touch2>:
  401768:	48 83 ec 08          	sub    $0x8,%rsp
  40176c:	89 fa                	mov    %edi,%edx
  40176e:	c7 05 64 2d 20 00 02 	movl   $0x2,0x202d64(%rip)        # 6044dc <vlevel>
  401775:	00 00 00 
  401778:	39 3d 66 2d 20 00    	cmp    %edi,0x202d66(%rip)        # 6044e4 <cookie>
  40177e:	74 2a                	je     4017aa <touch2+0x42>
  401780:	48 8d 35 f1 18 00 00 	lea    0x18f1(%rip),%rsi        # 403078 <_IO_stdin_used+0x2a8>
  401787:	bf 01 00 00 00       	mov    $0x1,%edi
  40178c:	b8 00 00 00 00       	mov    $0x0,%eax
  401791:	e8 fa f5 ff ff       	callq  400d90 <__printf_chk@plt>
  401796:	bf 02 00 00 00       	mov    $0x2,%edi
  40179b:	e8 64 05 00 00       	callq  401d04 <fail>
  4017a0:	bf 00 00 00 00       	mov    $0x0,%edi
  4017a5:	e8 26 f6 ff ff       	callq  400dd0 <exit@plt>
  4017aa:	48 8d 35 9f 18 00 00 	lea    0x189f(%rip),%rsi        # 403050 <_IO_stdin_used+0x280>
  4017b1:	bf 01 00 00 00       	mov    $0x1,%edi
  4017b6:	b8 00 00 00 00       	mov    $0x0,%eax
  4017bb:	e8 d0 f5 ff ff       	callq  400d90 <__printf_chk@plt>
  4017c0:	bf 02 00 00 00       	mov    $0x2,%edi
  4017c5:	e8 6a 04 00 00       	callq  401c34 <validate>
  4017ca:	eb d4                	jmp    4017a0 <touch2+0x38>

00000000004017cc <hexmatch>:
  4017cc:	41 54                	push   %r12
  4017ce:	55                   	push   %rbp
  4017cf:	53                   	push   %rbx
  4017d0:	48 83 c4 80          	add    $0xffffffffffffff80,%rsp
  4017d4:	89 fd                	mov    %edi,%ebp
  4017d6:	48 89 f3             	mov    %rsi,%rbx
  4017d9:	64 48 8b 04 25 28 00 	mov    %fs:0x28,%rax
  4017e0:	00 00 
  4017e2:	48 89 44 24 78       	mov    %rax,0x78(%rsp)
  4017e7:	31 c0                	xor    %eax,%eax
  4017e9:	e8 72 f5 ff ff       	callq  400d60 <random@plt>
  4017ee:	48 89 c1             	mov    %rax,%rcx
  4017f1:	48 ba 0b d7 a3 70 3d 	movabs $0xa3d70a3d70a3d70b,%rdx
  4017f8:	0a d7 a3 
  4017fb:	48 f7 ea             	imul   %rdx
  4017fe:	48 01 ca             	add    %rcx,%rdx
  401801:	48 c1 fa 06          	sar    $0x6,%rdx
  401805:	48 89 c8             	mov    %rcx,%rax
  401808:	48 c1 f8 3f          	sar    $0x3f,%rax
  40180c:	48 29 c2             	sub    %rax,%rdx
  40180f:	48 8d 04 92          	lea    (%rdx,%rdx,4),%rax
  401813:	48 8d 14 80          	lea    (%rax,%rax,4),%rdx
  401817:	48 8d 04 95 00 00 00 	lea    0x0(,%rdx,4),%rax
  40181e:	00 
  40181f:	48 29 c1             	sub    %rax,%rcx
  401822:	4c 8d 24 0c          	lea    (%rsp,%rcx,1),%r12
  401826:	41 89 e8             	mov    %ebp,%r8d
  401829:	48 8d 0d 17 18 00 00 	lea    0x1817(%rip),%rcx        # 403047 <_IO_stdin_used+0x277>
  401830:	48 c7 c2 ff ff ff ff 	mov    $0xffffffffffffffff,%rdx
  401837:	be 01 00 00 00       	mov    $0x1,%esi
  40183c:	4c 89 e7             	mov    %r12,%rdi
  40183f:	b8 00 00 00 00       	mov    $0x0,%eax
  401844:	e8 b7 f5 ff ff       	callq  400e00 <__sprintf_chk@plt>
  401849:	ba 09 00 00 00       	mov    $0x9,%edx
  40184e:	4c 89 e6             	mov    %r12,%rsi
  401851:	48 89 df             	mov    %rbx,%rdi
  401854:	e8 e7 f3 ff ff       	callq  400c40 <strncmp@plt>
  401859:	85 c0                	test   %eax,%eax
  40185b:	0f 94 c0             	sete   %al
  40185e:	48 8b 5c 24 78       	mov    0x78(%rsp),%rbx
  401863:	64 48 33 1c 25 28 00 	xor    %fs:0x28,%rbx
  40186a:	00 00 
  40186c:	75 0c                	jne    40187a <hexmatch+0xae>
  40186e:	0f b6 c0             	movzbl %al,%eax
  401871:	48 83 ec 80          	sub    $0xffffffffffffff80,%rsp
  401875:	5b                   	pop    %rbx
  401876:	5d                   	pop    %rbp
  401877:	41 5c                	pop    %r12
  401879:	c3                   	retq   
  40187a:	e8 01 f4 ff ff       	callq  400c80 <__stack_chk_fail@plt>

000000000040187f <touch3>:
  40187f:	53                   	push   %rbx
  401880:	48 89 fb             	mov    %rdi,%rbx
  401883:	c7 05 4f 2c 20 00 03 	movl   $0x3,0x202c4f(%rip)        # 6044dc <vlevel>
  40188a:	00 00 00 
  40188d:	48 89 fe             	mov    %rdi,%rsi
  401890:	8b 3d 4e 2c 20 00    	mov    0x202c4e(%rip),%edi        # 6044e4 <cookie>
  401896:	e8 31 ff ff ff       	callq  4017cc <hexmatch>
  40189b:	85 c0                	test   %eax,%eax
  40189d:	74 2d                	je     4018cc <touch3+0x4d>
  40189f:	48 89 da             	mov    %rbx,%rdx
  4018a2:	48 8d 35 f7 17 00 00 	lea    0x17f7(%rip),%rsi        # 4030a0 <_IO_stdin_used+0x2d0>
  4018a9:	bf 01 00 00 00       	mov    $0x1,%edi
  4018ae:	b8 00 00 00 00       	mov    $0x0,%eax
  4018b3:	e8 d8 f4 ff ff       	callq  400d90 <__printf_chk@plt>
  4018b8:	bf 03 00 00 00       	mov    $0x3,%edi
  4018bd:	e8 72 03 00 00       	callq  401c34 <validate>
  4018c2:	bf 00 00 00 00       	mov    $0x0,%edi
  4018c7:	e8 04 f5 ff ff       	callq  400dd0 <exit@plt>
  4018cc:	48 89 da             	mov    %rbx,%rdx
  4018cf:	48 8d 35 f2 17 00 00 	lea    0x17f2(%rip),%rsi        # 4030c8 <_IO_stdin_used+0x2f8>
  4018d6:	bf 01 00 00 00       	mov    $0x1,%edi
  4018db:	b8 00 00 00 00       	mov    $0x0,%eax
  4018e0:	e8 ab f4 ff ff       	callq  400d90 <__printf_chk@plt>
  4018e5:	bf 03 00 00 00       	mov    $0x3,%edi
  4018ea:	e8 15 04 00 00       	callq  401d04 <fail>
  4018ef:	eb d1                	jmp    4018c2 <touch3+0x43>

00000000004018f1 <test>:
  4018f1:	48 83 ec 08          	sub    $0x8,%rsp
  4018f5:	b8 00 00 00 00       	mov    $0x0,%eax
  4018fa:	e8 25 fe ff ff       	callq  401724 <getbuf>
  4018ff:	89 c2                	mov    %eax,%edx
  401901:	48 8d 35 e8 17 00 00 	lea    0x17e8(%rip),%rsi        # 4030f0 <_IO_stdin_used+0x320>
  401908:	bf 01 00 00 00       	mov    $0x1,%edi
  40190d:	b8 00 00 00 00       	mov    $0x0,%eax
  401912:	e8 79 f4 ff ff       	callq  400d90 <__printf_chk@plt>
  401917:	48 83 c4 08          	add    $0x8,%rsp
  40191b:	c3                   	retq   

000000000040191c <save_char>:
  40191c:	8b 05 e2 37 20 00    	mov    0x2037e2(%rip),%eax        # 605104 <gets_cnt>
  401922:	3d ff 03 00 00       	cmp    $0x3ff,%eax
  401927:	7f 4a                	jg     401973 <save_char+0x57>
  401929:	89 f9                	mov    %edi,%ecx
  40192b:	c0 e9 04             	shr    $0x4,%cl
  40192e:	8d 14 40             	lea    (%rax,%rax,2),%edx
  401931:	4c 8d 05 d8 1a 00 00 	lea    0x1ad8(%rip),%r8        # 403410 <trans_char>
  401938:	83 e1 0f             	and    $0xf,%ecx
  40193b:	45 0f b6 0c 08       	movzbl (%r8,%rcx,1),%r9d
  401940:	48 8d 0d b9 2b 20 00 	lea    0x202bb9(%rip),%rcx        # 604500 <gets_buf>
  401947:	48 63 f2             	movslq %edx,%rsi
  40194a:	44 88 0c 31          	mov    %r9b,(%rcx,%rsi,1)
  40194e:	8d 72 01             	lea    0x1(%rdx),%esi
  401951:	83 e7 0f             	and    $0xf,%edi
  401954:	41 0f b6 3c 38       	movzbl (%r8,%rdi,1),%edi
  401959:	48 63 f6             	movslq %esi,%rsi
  40195c:	40 88 3c 31          	mov    %dil,(%rcx,%rsi,1)
  401960:	83 c2 02             	add    $0x2,%edx
  401963:	48 63 d2             	movslq %edx,%rdx
  401966:	c6 04 11 20          	movb   $0x20,(%rcx,%rdx,1)
  40196a:	83 c0 01             	add    $0x1,%eax
  40196d:	89 05 91 37 20 00    	mov    %eax,0x203791(%rip)        # 605104 <gets_cnt>
  401973:	f3 c3                	repz retq 

0000000000401975 <save_term>:
  401975:	8b 05 89 37 20 00    	mov    0x203789(%rip),%eax        # 605104 <gets_cnt>
  40197b:	8d 04 40             	lea    (%rax,%rax,2),%eax
  40197e:	48 98                	cltq   
  401980:	48 8d 15 79 2b 20 00 	lea    0x202b79(%rip),%rdx        # 604500 <gets_buf>
  401987:	c6 04 02 00          	movb   $0x0,(%rdx,%rax,1)
  40198b:	c3                   	retq   

000000000040198c <check_fail>:
  40198c:	48 83 ec 08          	sub    $0x8,%rsp
  401990:	0f be 15 71 37 20 00 	movsbl 0x203771(%rip),%edx        # 605108 <target_prefix>
  401997:	4c 8d 05 62 2b 20 00 	lea    0x202b62(%rip),%r8        # 604500 <gets_buf>
  40199e:	8b 0d 34 2b 20 00    	mov    0x202b34(%rip),%ecx        # 6044d8 <check_level>
  4019a4:	48 8d 35 68 17 00 00 	lea    0x1768(%rip),%rsi        # 403113 <_IO_stdin_used+0x343>
  4019ab:	bf 01 00 00 00       	mov    $0x1,%edi
  4019b0:	b8 00 00 00 00       	mov    $0x0,%eax
  4019b5:	e8 d6 f3 ff ff       	callq  400d90 <__printf_chk@plt>
  4019ba:	bf 01 00 00 00       	mov    $0x1,%edi
  4019bf:	e8 0c f4 ff ff       	callq  400dd0 <exit@plt>

00000000004019c4 <Gets>:
  4019c4:	41 54                	push   %r12
  4019c6:	55                   	push   %rbp
  4019c7:	53                   	push   %rbx
  4019c8:	49 89 fc             	mov    %rdi,%r12
  4019cb:	c7 05 2f 37 20 00 00 	movl   $0x0,0x20372f(%rip)        # 605104 <gets_cnt>
  4019d2:	00 00 00 
  4019d5:	48 89 fb             	mov    %rdi,%rbx
  4019d8:	eb 11                	jmp    4019eb <Gets+0x27>
  4019da:	48 8d 6b 01          	lea    0x1(%rbx),%rbp
  4019de:	88 03                	mov    %al,(%rbx)
  4019e0:	0f b6 f8             	movzbl %al,%edi
  4019e3:	e8 34 ff ff ff       	callq  40191c <save_char>
  4019e8:	48 89 eb             	mov    %rbp,%rbx
  4019eb:	48 8b 3d de 2a 20 00 	mov    0x202ade(%rip),%rdi        # 6044d0 <infile>
  4019f2:	e8 79 f3 ff ff       	callq  400d70 <_IO_getc@plt>
  4019f7:	83 f8 ff             	cmp    $0xffffffff,%eax
  4019fa:	74 05                	je     401a01 <Gets+0x3d>
  4019fc:	83 f8 0a             	cmp    $0xa,%eax
  4019ff:	75 d9                	jne    4019da <Gets+0x16>
  401a01:	c6 03 00             	movb   $0x0,(%rbx)
  401a04:	b8 00 00 00 00       	mov    $0x0,%eax
  401a09:	e8 67 ff ff ff       	callq  401975 <save_term>
  401a0e:	4c 89 e0             	mov    %r12,%rax
  401a11:	5b                   	pop    %rbx
  401a12:	5d                   	pop    %rbp
  401a13:	41 5c                	pop    %r12
  401a15:	c3                   	retq   

0000000000401a16 <notify_server>:
  401a16:	55                   	push   %rbp
  401a17:	53                   	push   %rbx
  401a18:	48 81 ec 18 40 00 00 	sub    $0x4018,%rsp
  401a1f:	64 48 8b 04 25 28 00 	mov    %fs:0x28,%rax
  401a26:	00 00 
  401a28:	48 89 84 24 08 40 00 	mov    %rax,0x4008(%rsp)
  401a2f:	00 
  401a30:	31 c0                	xor    %eax,%eax
  401a32:	83 3d af 2a 20 00 00 	cmpl   $0x0,0x202aaf(%rip)        # 6044e8 <is_checker>
  401a39:	0f 85 d2 00 00 00    	jne    401b11 <notify_server+0xfb>
  401a3f:	89 fb                	mov    %edi,%ebx
  401a41:	8b 05 bd 36 20 00    	mov    0x2036bd(%rip),%eax        # 605104 <gets_cnt>
  401a47:	83 c0 64             	add    $0x64,%eax
  401a4a:	3d 00 20 00 00       	cmp    $0x2000,%eax
  401a4f:	0f 8f dd 00 00 00    	jg     401b32 <notify_server+0x11c>
  401a55:	0f be 05 ac 36 20 00 	movsbl 0x2036ac(%rip),%eax        # 605108 <target_prefix>
  401a5c:	83 3d ed 26 20 00 00 	cmpl   $0x0,0x2026ed(%rip)        # 604150 <notify>
  401a63:	0f 84 e9 00 00 00    	je     401b52 <notify_server+0x13c>
  401a69:	8b 15 71 2a 20 00    	mov    0x202a71(%rip),%edx        # 6044e0 <authkey>
  401a6f:	85 db                	test   %ebx,%ebx
  401a71:	0f 84 e5 00 00 00    	je     401b5c <notify_server+0x146>
  401a77:	48 8d 2d ab 16 00 00 	lea    0x16ab(%rip),%rbp        # 403129 <_IO_stdin_used+0x359>
  401a7e:	48 89 e7             	mov    %rsp,%rdi
  401a81:	48 8d 0d 78 2a 20 00 	lea    0x202a78(%rip),%rcx        # 604500 <gets_buf>
  401a88:	51                   	push   %rcx
  401a89:	56                   	push   %rsi
  401a8a:	50                   	push   %rax
  401a8b:	52                   	push   %rdx
  401a8c:	49 89 e9             	mov    %rbp,%r9
  401a8f:	44 8b 05 92 26 20 00 	mov    0x202692(%rip),%r8d        # 604128 <target_id>
  401a96:	48 8d 0d 96 16 00 00 	lea    0x1696(%rip),%rcx        # 403133 <_IO_stdin_used+0x363>
  401a9d:	ba 00 20 00 00       	mov    $0x2000,%edx
  401aa2:	be 01 00 00 00       	mov    $0x1,%esi
  401aa7:	b8 00 00 00 00       	mov    $0x0,%eax
  401aac:	e8 4f f3 ff ff       	callq  400e00 <__sprintf_chk@plt>
  401ab1:	48 83 c4 20          	add    $0x20,%rsp
  401ab5:	83 3d 94 26 20 00 00 	cmpl   $0x0,0x202694(%rip)        # 604150 <notify>
  401abc:	0f 84 df 00 00 00    	je     401ba1 <notify_server+0x18b>
  401ac2:	85 db                	test   %ebx,%ebx
  401ac4:	0f 84 c6 00 00 00    	je     401b90 <notify_server+0x17a>
  401aca:	48 89 e1             	mov    %rsp,%rcx
  401acd:	4c 8d 8c 24 00 20 00 	lea    0x2000(%rsp),%r9
  401ad4:	00 
  401ad5:	41 b8 00 00 00 00    	mov    $0x0,%r8d
  401adb:	48 8b 15 56 26 20 00 	mov    0x202656(%rip),%rdx        # 604138 <lab>
  401ae2:	48 8b 35 57 26 20 00 	mov    0x202657(%rip),%rsi        # 604140 <course>
  401ae9:	48 8b 3d 40 26 20 00 	mov    0x202640(%rip),%rdi        # 604130 <user_id>
  401af0:	e8 91 11 00 00       	callq  402c86 <driver_post>
  401af5:	85 c0                	test   %eax,%eax
  401af7:	78 6f                	js     401b68 <notify_server+0x152>
  401af9:	48 8d 3d 78 17 00 00 	lea    0x1778(%rip),%rdi        # 403278 <_IO_stdin_used+0x4a8>
  401b00:	e8 5b f1 ff ff       	callq  400c60 <puts@plt>
  401b05:	48 8d 3d 4f 16 00 00 	lea    0x164f(%rip),%rdi        # 40315b <_IO_stdin_used+0x38b>
  401b0c:	e8 4f f1 ff ff       	callq  400c60 <puts@plt>
  401b11:	48 8b 84 24 08 40 00 	mov    0x4008(%rsp),%rax
  401b18:	00 
  401b19:	64 48 33 04 25 28 00 	xor    %fs:0x28,%rax
  401b20:	00 00 
  401b22:	0f 85 07 01 00 00    	jne    401c2f <notify_server+0x219>
  401b28:	48 81 c4 18 40 00 00 	add    $0x4018,%rsp
  401b2f:	5b                   	pop    %rbx
  401b30:	5d                   	pop    %rbp
  401b31:	c3                   	retq   
  401b32:	48 8d 35 0f 17 00 00 	lea    0x170f(%rip),%rsi        # 403248 <_IO_stdin_used+0x478>
  401b39:	bf 01 00 00 00       	mov    $0x1,%edi
  401b3e:	b8 00 00 00 00       	mov    $0x0,%eax
  401b43:	e8 48 f2 ff ff       	callq  400d90 <__printf_chk@plt>
  401b48:	bf 01 00 00 00       	mov    $0x1,%edi
  401b4d:	e8 7e f2 ff ff       	callq  400dd0 <exit@plt>
  401b52:	ba ff ff ff ff       	mov    $0xffffffff,%edx
  401b57:	e9 13 ff ff ff       	jmpq   401a6f <notify_server+0x59>
  401b5c:	48 8d 2d cb 15 00 00 	lea    0x15cb(%rip),%rbp        # 40312e <_IO_stdin_used+0x35e>
  401b63:	e9 16 ff ff ff       	jmpq   401a7e <notify_server+0x68>
  401b68:	48 8d 94 24 00 20 00 	lea    0x2000(%rsp),%rdx
  401b6f:	00 
  401b70:	48 8d 35 d8 15 00 00 	lea    0x15d8(%rip),%rsi        # 40314f <_IO_stdin_used+0x37f>
  401b77:	bf 01 00 00 00       	mov    $0x1,%edi
  401b7c:	b8 00 00 00 00       	mov    $0x0,%eax
  401b81:	e8 0a f2 ff ff       	callq  400d90 <__printf_chk@plt>
  401b86:	bf 01 00 00 00       	mov    $0x1,%edi
  401b8b:	e8 40 f2 ff ff       	callq  400dd0 <exit@plt>
  401b90:	48 8d 3d ce 15 00 00 	lea    0x15ce(%rip),%rdi        # 403165 <_IO_stdin_used+0x395>
  401b97:	e8 c4 f0 ff ff       	callq  400c60 <puts@plt>
  401b9c:	e9 70 ff ff ff       	jmpq   401b11 <notify_server+0xfb>
  401ba1:	48 89 ea             	mov    %rbp,%rdx
  401ba4:	48 8d 35 05 17 00 00 	lea    0x1705(%rip),%rsi        # 4032b0 <_IO_stdin_used+0x4e0>
  401bab:	bf 01 00 00 00       	mov    $0x1,%edi
  401bb0:	b8 00 00 00 00       	mov    $0x0,%eax
  401bb5:	e8 d6 f1 ff ff       	callq  400d90 <__printf_chk@plt>
  401bba:	48 8b 15 6f 25 20 00 	mov    0x20256f(%rip),%rdx        # 604130 <user_id>
  401bc1:	48 8d 35 a4 15 00 00 	lea    0x15a4(%rip),%rsi        # 40316c <_IO_stdin_used+0x39c>
  401bc8:	bf 01 00 00 00       	mov    $0x1,%edi
  401bcd:	b8 00 00 00 00       	mov    $0x0,%eax
  401bd2:	e8 b9 f1 ff ff       	callq  400d90 <__printf_chk@plt>
  401bd7:	48 8b 15 62 25 20 00 	mov    0x202562(%rip),%rdx        # 604140 <course>
  401bde:	48 8d 35 94 15 00 00 	lea    0x1594(%rip),%rsi        # 403179 <_IO_stdin_used+0x3a9>
  401be5:	bf 01 00 00 00       	mov    $0x1,%edi
  401bea:	b8 00 00 00 00       	mov    $0x0,%eax
  401bef:	e8 9c f1 ff ff       	callq  400d90 <__printf_chk@plt>
  401bf4:	48 8b 15 3d 25 20 00 	mov    0x20253d(%rip),%rdx        # 604138 <lab>
  401bfb:	48 8d 35 83 15 00 00 	lea    0x1583(%rip),%rsi        # 403185 <_IO_stdin_used+0x3b5>
  401c02:	bf 01 00 00 00       	mov    $0x1,%edi
  401c07:	b8 00 00 00 00       	mov    $0x0,%eax
  401c0c:	e8 7f f1 ff ff       	callq  400d90 <__printf_chk@plt>
  401c11:	48 89 e2             	mov    %rsp,%rdx
  401c14:	48 8d 35 73 15 00 00 	lea    0x1573(%rip),%rsi        # 40318e <_IO_stdin_used+0x3be>
  401c1b:	bf 01 00 00 00       	mov    $0x1,%edi
  401c20:	b8 00 00 00 00       	mov    $0x0,%eax
  401c25:	e8 66 f1 ff ff       	callq  400d90 <__printf_chk@plt>
  401c2a:	e9 e2 fe ff ff       	jmpq   401b11 <notify_server+0xfb>
  401c2f:	e8 4c f0 ff ff       	callq  400c80 <__stack_chk_fail@plt>

0000000000401c34 <validate>:
  401c34:	53                   	push   %rbx
  401c35:	89 fb                	mov    %edi,%ebx
  401c37:	83 3d aa 28 20 00 00 	cmpl   $0x0,0x2028aa(%rip)        # 6044e8 <is_checker>
  401c3e:	74 72                	je     401cb2 <validate+0x7e>
  401c40:	39 3d 96 28 20 00    	cmp    %edi,0x202896(%rip)        # 6044dc <vlevel>
  401c46:	75 32                	jne    401c7a <validate+0x46>
  401c48:	8b 15 8a 28 20 00    	mov    0x20288a(%rip),%edx        # 6044d8 <check_level>
  401c4e:	39 fa                	cmp    %edi,%edx
  401c50:	75 3e                	jne    401c90 <validate+0x5c>
  401c52:	0f be 15 af 34 20 00 	movsbl 0x2034af(%rip),%edx        # 605108 <target_prefix>
  401c59:	4c 8d 05 a0 28 20 00 	lea    0x2028a0(%rip),%r8        # 604500 <gets_buf>
  401c60:	89 f9                	mov    %edi,%ecx
  401c62:	48 8d 35 4f 15 00 00 	lea    0x154f(%rip),%rsi        # 4031b8 <_IO_stdin_used+0x3e8>
  401c69:	bf 01 00 00 00       	mov    $0x1,%edi
  401c6e:	b8 00 00 00 00       	mov    $0x0,%eax
  401c73:	e8 18 f1 ff ff       	callq  400d90 <__printf_chk@plt>
  401c78:	5b                   	pop    %rbx
  401c79:	c3                   	retq   
  401c7a:	48 8d 3d 19 15 00 00 	lea    0x1519(%rip),%rdi        # 40319a <_IO_stdin_used+0x3ca>
  401c81:	e8 da ef ff ff       	callq  400c60 <puts@plt>
  401c86:	b8 00 00 00 00       	mov    $0x0,%eax
  401c8b:	e8 fc fc ff ff       	callq  40198c <check_fail>
  401c90:	89 f9                	mov    %edi,%ecx
  401c92:	48 8d 35 3f 16 00 00 	lea    0x163f(%rip),%rsi        # 4032d8 <_IO_stdin_used+0x508>
  401c99:	bf 01 00 00 00       	mov    $0x1,%edi
  401c9e:	b8 00 00 00 00       	mov    $0x0,%eax
  401ca3:	e8 e8 f0 ff ff       	callq  400d90 <__printf_chk@plt>
  401ca8:	b8 00 00 00 00       	mov    $0x0,%eax
  401cad:	e8 da fc ff ff       	callq  40198c <check_fail>
  401cb2:	39 3d 24 28 20 00    	cmp    %edi,0x202824(%rip)        # 6044dc <vlevel>
  401cb8:	74 1a                	je     401cd4 <validate+0xa0>
  401cba:	48 8d 3d d9 14 00 00 	lea    0x14d9(%rip),%rdi        # 40319a <_IO_stdin_used+0x3ca>
  401cc1:	e8 9a ef ff ff       	callq  400c60 <puts@plt>
  401cc6:	89 de                	mov    %ebx,%esi
  401cc8:	bf 00 00 00 00       	mov    $0x0,%edi
  401ccd:	e8 44 fd ff ff       	callq  401a16 <notify_server>
  401cd2:	eb a4                	jmp    401c78 <validate+0x44>
  401cd4:	0f be 0d 2d 34 20 00 	movsbl 0x20342d(%rip),%ecx        # 605108 <target_prefix>
  401cdb:	89 fa                	mov    %edi,%edx
  401cdd:	48 8d 35 1c 16 00 00 	lea    0x161c(%rip),%rsi        # 403300 <_IO_stdin_used+0x530>
  401ce4:	bf 01 00 00 00       	mov    $0x1,%edi
  401ce9:	b8 00 00 00 00       	mov    $0x0,%eax
  401cee:	e8 9d f0 ff ff       	callq  400d90 <__printf_chk@plt>
  401cf3:	89 de                	mov    %ebx,%esi
  401cf5:	bf 01 00 00 00       	mov    $0x1,%edi
  401cfa:	e8 17 fd ff ff       	callq  401a16 <notify_server>
  401cff:	e9 74 ff ff ff       	jmpq   401c78 <validate+0x44>

0000000000401d04 <fail>:
  401d04:	48 83 ec 08          	sub    $0x8,%rsp
  401d08:	83 3d d9 27 20 00 00 	cmpl   $0x0,0x2027d9(%rip)        # 6044e8 <is_checker>
  401d0f:	75 11                	jne    401d22 <fail+0x1e>
  401d11:	89 fe                	mov    %edi,%esi
  401d13:	bf 00 00 00 00       	mov    $0x0,%edi
  401d18:	e8 f9 fc ff ff       	callq  401a16 <notify_server>
  401d1d:	48 83 c4 08          	add    $0x8,%rsp
  401d21:	c3                   	retq   
  401d22:	b8 00 00 00 00       	mov    $0x0,%eax
  401d27:	e8 60 fc ff ff       	callq  40198c <check_fail>

0000000000401d2c <bushandler>:
  401d2c:	48 83 ec 08          	sub    $0x8,%rsp
  401d30:	83 3d b1 27 20 00 00 	cmpl   $0x0,0x2027b1(%rip)        # 6044e8 <is_checker>
  401d37:	74 16                	je     401d4f <bushandler+0x23>
  401d39:	48 8d 3d 8d 14 00 00 	lea    0x148d(%rip),%rdi        # 4031cd <_IO_stdin_used+0x3fd>
  401d40:	e8 1b ef ff ff       	callq  400c60 <puts@plt>
  401d45:	b8 00 00 00 00       	mov    $0x0,%eax
  401d4a:	e8 3d fc ff ff       	callq  40198c <check_fail>
  401d4f:	48 8d 3d e2 15 00 00 	lea    0x15e2(%rip),%rdi        # 403338 <_IO_stdin_used+0x568>
  401d56:	e8 05 ef ff ff       	callq  400c60 <puts@plt>
  401d5b:	48 8d 3d 75 14 00 00 	lea    0x1475(%rip),%rdi        # 4031d7 <_IO_stdin_used+0x407>
  401d62:	e8 f9 ee ff ff       	callq  400c60 <puts@plt>
  401d67:	be 00 00 00 00       	mov    $0x0,%esi
  401d6c:	bf 00 00 00 00       	mov    $0x0,%edi
  401d71:	e8 a0 fc ff ff       	callq  401a16 <notify_server>
  401d76:	bf 01 00 00 00       	mov    $0x1,%edi
  401d7b:	e8 50 f0 ff ff       	callq  400dd0 <exit@plt>

0000000000401d80 <seghandler>:
  401d80:	48 83 ec 08          	sub    $0x8,%rsp
  401d84:	83 3d 5d 27 20 00 00 	cmpl   $0x0,0x20275d(%rip)        # 6044e8 <is_checker>
  401d8b:	74 16                	je     401da3 <seghandler+0x23>
  401d8d:	48 8d 3d 59 14 00 00 	lea    0x1459(%rip),%rdi        # 4031ed <_IO_stdin_used+0x41d>
  401d94:	e8 c7 ee ff ff       	callq  400c60 <puts@plt>
  401d99:	b8 00 00 00 00       	mov    $0x0,%eax
  401d9e:	e8 e9 fb ff ff       	callq  40198c <check_fail>
  401da3:	48 8d 3d ae 15 00 00 	lea    0x15ae(%rip),%rdi        # 403358 <_IO_stdin_used+0x588>
  401daa:	e8 b1 ee ff ff       	callq  400c60 <puts@plt>
  401daf:	48 8d 3d 21 14 00 00 	lea    0x1421(%rip),%rdi        # 4031d7 <_IO_stdin_used+0x407>
  401db6:	e8 a5 ee ff ff       	callq  400c60 <puts@plt>
  401dbb:	be 00 00 00 00       	mov    $0x0,%esi
  401dc0:	bf 00 00 00 00       	mov    $0x0,%edi
  401dc5:	e8 4c fc ff ff       	callq  401a16 <notify_server>
  401dca:	bf 01 00 00 00       	mov    $0x1,%edi
  401dcf:	e8 fc ef ff ff       	callq  400dd0 <exit@plt>

0000000000401dd4 <illegalhandler>:
  401dd4:	48 83 ec 08          	sub    $0x8,%rsp
  401dd8:	83 3d 09 27 20 00 00 	cmpl   $0x0,0x202709(%rip)        # 6044e8 <is_checker>
  401ddf:	74 16                	je     401df7 <illegalhandler+0x23>
  401de1:	48 8d 3d 18 14 00 00 	lea    0x1418(%rip),%rdi        # 403200 <_IO_stdin_used+0x430>
  401de8:	e8 73 ee ff ff       	callq  400c60 <puts@plt>
  401ded:	b8 00 00 00 00       	mov    $0x0,%eax
  401df2:	e8 95 fb ff ff       	callq  40198c <check_fail>
  401df7:	48 8d 3d 82 15 00 00 	lea    0x1582(%rip),%rdi        # 403380 <_IO_stdin_used+0x5b0>
  401dfe:	e8 5d ee ff ff       	callq  400c60 <puts@plt>
  401e03:	48 8d 3d cd 13 00 00 	lea    0x13cd(%rip),%rdi        # 4031d7 <_IO_stdin_used+0x407>
  401e0a:	e8 51 ee ff ff       	callq  400c60 <puts@plt>
  401e0f:	be 00 00 00 00       	mov    $0x0,%esi
  401e14:	bf 00 00 00 00       	mov    $0x0,%edi
  401e19:	e8 f8 fb ff ff       	callq  401a16 <notify_server>
  401e1e:	bf 01 00 00 00       	mov    $0x1,%edi
  401e23:	e8 a8 ef ff ff       	callq  400dd0 <exit@plt>

0000000000401e28 <sigalrmhandler>:
  401e28:	48 83 ec 08          	sub    $0x8,%rsp
  401e2c:	83 3d b5 26 20 00 00 	cmpl   $0x0,0x2026b5(%rip)        # 6044e8 <is_checker>
  401e33:	74 16                	je     401e4b <sigalrmhandler+0x23>
  401e35:	48 8d 3d d8 13 00 00 	lea    0x13d8(%rip),%rdi        # 403214 <_IO_stdin_used+0x444>
  401e3c:	e8 1f ee ff ff       	callq  400c60 <puts@plt>
  401e41:	b8 00 00 00 00       	mov    $0x0,%eax
  401e46:	e8 41 fb ff ff       	callq  40198c <check_fail>
  401e4b:	ba 05 00 00 00       	mov    $0x5,%edx
  401e50:	48 8d 35 59 15 00 00 	lea    0x1559(%rip),%rsi        # 4033b0 <_IO_stdin_used+0x5e0>
  401e57:	bf 01 00 00 00       	mov    $0x1,%edi
  401e5c:	b8 00 00 00 00       	mov    $0x0,%eax
  401e61:	e8 2a ef ff ff       	callq  400d90 <__printf_chk@plt>
  401e66:	be 00 00 00 00       	mov    $0x0,%esi
  401e6b:	bf 00 00 00 00       	mov    $0x0,%edi
  401e70:	e8 a1 fb ff ff       	callq  401a16 <notify_server>
  401e75:	bf 01 00 00 00       	mov    $0x1,%edi
  401e7a:	e8 51 ef ff ff       	callq  400dd0 <exit@plt>

0000000000401e7f <launch>:
  401e7f:	55                   	push   %rbp
  401e80:	48 89 e5             	mov    %rsp,%rbp
  401e83:	48 83 ec 10          	sub    $0x10,%rsp
  401e87:	48 89 fa             	mov    %rdi,%rdx
  401e8a:	64 48 8b 04 25 28 00 	mov    %fs:0x28,%rax
  401e91:	00 00 
  401e93:	48 89 45 f8          	mov    %rax,-0x8(%rbp)
  401e97:	31 c0                	xor    %eax,%eax
  401e99:	48 8d 47 1e          	lea    0x1e(%rdi),%rax
  401e9d:	48 83 e0 f0          	and    $0xfffffffffffffff0,%rax
  401ea1:	48 29 c4             	sub    %rax,%rsp
  401ea4:	48 8d 7c 24 0f       	lea    0xf(%rsp),%rdi
  401ea9:	48 83 e7 f0          	and    $0xfffffffffffffff0,%rdi
  401ead:	be f4 00 00 00       	mov    $0xf4,%esi
  401eb2:	e8 e9 ed ff ff       	callq  400ca0 <memset@plt>
  401eb7:	48 8b 05 a2 22 20 00 	mov    0x2022a2(%rip),%rax        # 604160 <stdin@@GLIBC_2.2.5>
  401ebe:	48 39 05 0b 26 20 00 	cmp    %rax,0x20260b(%rip)        # 6044d0 <infile>
  401ec5:	74 3a                	je     401f01 <launch+0x82>
  401ec7:	c7 05 0b 26 20 00 00 	movl   $0x0,0x20260b(%rip)        # 6044dc <vlevel>
  401ece:	00 00 00 
  401ed1:	b8 00 00 00 00       	mov    $0x0,%eax
  401ed6:	e8 16 fa ff ff       	callq  4018f1 <test>
  401edb:	83 3d 06 26 20 00 00 	cmpl   $0x0,0x202606(%rip)        # 6044e8 <is_checker>
  401ee2:	75 35                	jne    401f19 <launch+0x9a>
  401ee4:	48 8d 3d 49 13 00 00 	lea    0x1349(%rip),%rdi        # 403234 <_IO_stdin_used+0x464>
  401eeb:	e8 70 ed ff ff       	callq  400c60 <puts@plt>
  401ef0:	48 8b 45 f8          	mov    -0x8(%rbp),%rax
  401ef4:	64 48 33 04 25 28 00 	xor    %fs:0x28,%rax
  401efb:	00 00 
  401efd:	75 30                	jne    401f2f <launch+0xb0>
  401eff:	c9                   	leaveq 
  401f00:	c3                   	retq   
  401f01:	48 8d 35 14 13 00 00 	lea    0x1314(%rip),%rsi        # 40321c <_IO_stdin_used+0x44c>
  401f08:	bf 01 00 00 00       	mov    $0x1,%edi
  401f0d:	b8 00 00 00 00       	mov    $0x0,%eax
  401f12:	e8 79 ee ff ff       	callq  400d90 <__printf_chk@plt>
  401f17:	eb ae                	jmp    401ec7 <launch+0x48>
  401f19:	48 8d 3d 09 13 00 00 	lea    0x1309(%rip),%rdi        # 403229 <_IO_stdin_used+0x459>
  401f20:	e8 3b ed ff ff       	callq  400c60 <puts@plt>
  401f25:	b8 00 00 00 00       	mov    $0x0,%eax
  401f2a:	e8 5d fa ff ff       	callq  40198c <check_fail>
  401f2f:	e8 4c ed ff ff       	callq  400c80 <__stack_chk_fail@plt>

0000000000401f34 <stable_launch>:
  401f34:	53                   	push   %rbx
  401f35:	48 89 3d 8c 25 20 00 	mov    %rdi,0x20258c(%rip)        # 6044c8 <global_offset>
  401f3c:	41 b9 00 00 00 00    	mov    $0x0,%r9d
  401f42:	41 b8 00 00 00 00    	mov    $0x0,%r8d
  401f48:	b9 32 01 00 00       	mov    $0x132,%ecx
  401f4d:	ba 07 00 00 00       	mov    $0x7,%edx
  401f52:	be 00 00 10 00       	mov    $0x100000,%esi
  401f57:	bf 00 60 58 55       	mov    $0x55586000,%edi
  401f5c:	e8 2f ed ff ff       	callq  400c90 <mmap@plt>
  401f61:	48 89 c3             	mov    %rax,%rbx
  401f64:	48 3d 00 60 58 55    	cmp    $0x55586000,%rax
  401f6a:	75 43                	jne    401faf <stable_launch+0x7b>
  401f6c:	48 8d 90 f8 ff 0f 00 	lea    0xffff8(%rax),%rdx
  401f73:	48 89 15 96 31 20 00 	mov    %rdx,0x203196(%rip)        # 605110 <stack_top>
  401f7a:	48 89 e0             	mov    %rsp,%rax
  401f7d:	48 89 d4             	mov    %rdx,%rsp
  401f80:	48 89 c2             	mov    %rax,%rdx
  401f83:	48 89 15 36 25 20 00 	mov    %rdx,0x202536(%rip)        # 6044c0 <global_save_stack>
  401f8a:	48 8b 3d 37 25 20 00 	mov    0x202537(%rip),%rdi        # 6044c8 <global_offset>
  401f91:	e8 e9 fe ff ff       	callq  401e7f <launch>
  401f96:	48 8b 05 23 25 20 00 	mov    0x202523(%rip),%rax        # 6044c0 <global_save_stack>
  401f9d:	48 89 c4             	mov    %rax,%rsp
  401fa0:	be 00 00 10 00       	mov    $0x100000,%esi
  401fa5:	48 89 df             	mov    %rbx,%rdi
  401fa8:	e8 d3 ed ff ff       	callq  400d80 <munmap@plt>
  401fad:	5b                   	pop    %rbx
  401fae:	c3                   	retq   
  401faf:	be 00 00 10 00       	mov    $0x100000,%esi
  401fb4:	48 89 c7             	mov    %rax,%rdi
  401fb7:	e8 c4 ed ff ff       	callq  400d80 <munmap@plt>
  401fbc:	b9 00 60 58 55       	mov    $0x55586000,%ecx
  401fc1:	48 8d 15 20 14 00 00 	lea    0x1420(%rip),%rdx        # 4033e8 <_IO_stdin_used+0x618>
  401fc8:	be 01 00 00 00       	mov    $0x1,%esi
  401fcd:	48 8b 3d ac 21 20 00 	mov    0x2021ac(%rip),%rdi        # 604180 <stderr@@GLIBC_2.2.5>
  401fd4:	b8 00 00 00 00       	mov    $0x0,%eax
  401fd9:	e8 12 ee ff ff       	callq  400df0 <__fprintf_chk@plt>
  401fde:	bf 01 00 00 00       	mov    $0x1,%edi
  401fe3:	e8 e8 ed ff ff       	callq  400dd0 <exit@plt>

0000000000401fe8 <rio_readinitb>:
  401fe8:	89 37                	mov    %esi,(%rdi)
  401fea:	c7 47 04 00 00 00 00 	movl   $0x0,0x4(%rdi)
  401ff1:	48 8d 47 10          	lea    0x10(%rdi),%rax
  401ff5:	48 89 47 08          	mov    %rax,0x8(%rdi)
  401ff9:	c3                   	retq   

0000000000401ffa <sigalrm_handler>:
  401ffa:	48 83 ec 08          	sub    $0x8,%rsp
  401ffe:	b9 00 00 00 00       	mov    $0x0,%ecx
  402003:	48 8d 15 16 14 00 00 	lea    0x1416(%rip),%rdx        # 403420 <trans_char+0x10>
  40200a:	be 01 00 00 00       	mov    $0x1,%esi
  40200f:	48 8b 3d 6a 21 20 00 	mov    0x20216a(%rip),%rdi        # 604180 <stderr@@GLIBC_2.2.5>
  402016:	b8 00 00 00 00       	mov    $0x0,%eax
  40201b:	e8 d0 ed ff ff       	callq  400df0 <__fprintf_chk@plt>
  402020:	bf 01 00 00 00       	mov    $0x1,%edi
  402025:	e8 a6 ed ff ff       	callq  400dd0 <exit@plt>

000000000040202a <rio_writen>:
  40202a:	41 55                	push   %r13
  40202c:	41 54                	push   %r12
  40202e:	55                   	push   %rbp
  40202f:	53                   	push   %rbx
  402030:	48 83 ec 08          	sub    $0x8,%rsp
  402034:	41 89 fc             	mov    %edi,%r12d
  402037:	48 89 f5             	mov    %rsi,%rbp
  40203a:	49 89 d5             	mov    %rdx,%r13
  40203d:	48 89 d3             	mov    %rdx,%rbx
  402040:	eb 06                	jmp    402048 <rio_writen+0x1e>
  402042:	48 29 c3             	sub    %rax,%rbx
  402045:	48 01 c5             	add    %rax,%rbp
  402048:	48 85 db             	test   %rbx,%rbx
  40204b:	74 24                	je     402071 <rio_writen+0x47>
  40204d:	48 89 da             	mov    %rbx,%rdx
  402050:	48 89 ee             	mov    %rbp,%rsi
  402053:	44 89 e7             	mov    %r12d,%edi
  402056:	e8 15 ec ff ff       	callq  400c70 <write@plt>
  40205b:	48 85 c0             	test   %rax,%rax
  40205e:	7f e2                	jg     402042 <rio_writen+0x18>
  402060:	e8 bb eb ff ff       	callq  400c20 <__errno_location@plt>
  402065:	83 38 04             	cmpl   $0x4,(%rax)
  402068:	75 15                	jne    40207f <rio_writen+0x55>
  40206a:	b8 00 00 00 00       	mov    $0x0,%eax
  40206f:	eb d1                	jmp    402042 <rio_writen+0x18>
  402071:	4c 89 e8             	mov    %r13,%rax
  402074:	48 83 c4 08          	add    $0x8,%rsp
  402078:	5b                   	pop    %rbx
  402079:	5d                   	pop    %rbp
  40207a:	41 5c                	pop    %r12
  40207c:	41 5d                	pop    %r13
  40207e:	c3                   	retq   
  40207f:	48 c7 c0 ff ff ff ff 	mov    $0xffffffffffffffff,%rax
  402086:	eb ec                	jmp    402074 <rio_writen+0x4a>

0000000000402088 <rio_read>:
  402088:	41 55                	push   %r13
  40208a:	41 54                	push   %r12
  40208c:	55                   	push   %rbp
  40208d:	53                   	push   %rbx
  40208e:	48 83 ec 08          	sub    $0x8,%rsp
  402092:	48 89 fb             	mov    %rdi,%rbx
  402095:	49 89 f5             	mov    %rsi,%r13
  402098:	49 89 d4             	mov    %rdx,%r12
  40209b:	eb 0a                	jmp    4020a7 <rio_read+0x1f>
  40209d:	e8 7e eb ff ff       	callq  400c20 <__errno_location@plt>
  4020a2:	83 38 04             	cmpl   $0x4,(%rax)
  4020a5:	75 5c                	jne    402103 <rio_read+0x7b>
  4020a7:	8b 6b 04             	mov    0x4(%rbx),%ebp
  4020aa:	85 ed                	test   %ebp,%ebp
  4020ac:	7f 24                	jg     4020d2 <rio_read+0x4a>
  4020ae:	48 8d 6b 10          	lea    0x10(%rbx),%rbp
  4020b2:	8b 3b                	mov    (%rbx),%edi
  4020b4:	ba 00 20 00 00       	mov    $0x2000,%edx
  4020b9:	48 89 ee             	mov    %rbp,%rsi
  4020bc:	e8 0f ec ff ff       	callq  400cd0 <read@plt>
  4020c1:	89 43 04             	mov    %eax,0x4(%rbx)
  4020c4:	85 c0                	test   %eax,%eax
  4020c6:	78 d5                	js     40209d <rio_read+0x15>
  4020c8:	85 c0                	test   %eax,%eax
  4020ca:	74 40                	je     40210c <rio_read+0x84>
  4020cc:	48 89 6b 08          	mov    %rbp,0x8(%rbx)
  4020d0:	eb d5                	jmp    4020a7 <rio_read+0x1f>
  4020d2:	89 e8                	mov    %ebp,%eax
  4020d4:	4c 39 e0             	cmp    %r12,%rax
  4020d7:	72 03                	jb     4020dc <rio_read+0x54>
  4020d9:	44 89 e5             	mov    %r12d,%ebp
  4020dc:	4c 63 e5             	movslq %ebp,%r12
  4020df:	48 8b 73 08          	mov    0x8(%rbx),%rsi
  4020e3:	4c 89 e2             	mov    %r12,%rdx
  4020e6:	4c 89 ef             	mov    %r13,%rdi
  4020e9:	e8 42 ec ff ff       	callq  400d30 <memcpy@plt>
  4020ee:	4c 01 63 08          	add    %r12,0x8(%rbx)
  4020f2:	29 6b 04             	sub    %ebp,0x4(%rbx)
  4020f5:	4c 89 e0             	mov    %r12,%rax
  4020f8:	48 83 c4 08          	add    $0x8,%rsp
  4020fc:	5b                   	pop    %rbx
  4020fd:	5d                   	pop    %rbp
  4020fe:	41 5c                	pop    %r12
  402100:	41 5d                	pop    %r13
  402102:	c3                   	retq   
  402103:	48 c7 c0 ff ff ff ff 	mov    $0xffffffffffffffff,%rax
  40210a:	eb ec                	jmp    4020f8 <rio_read+0x70>
  40210c:	b8 00 00 00 00       	mov    $0x0,%eax
  402111:	eb e5                	jmp    4020f8 <rio_read+0x70>

0000000000402113 <rio_readlineb>:
  402113:	41 55                	push   %r13
  402115:	41 54                	push   %r12
  402117:	55                   	push   %rbp
  402118:	53                   	push   %rbx
  402119:	48 83 ec 18          	sub    $0x18,%rsp
  40211d:	49 89 fd             	mov    %rdi,%r13
  402120:	48 89 f5             	mov    %rsi,%rbp
  402123:	49 89 d4             	mov    %rdx,%r12
  402126:	64 48 8b 04 25 28 00 	mov    %fs:0x28,%rax
  40212d:	00 00 
  40212f:	48 89 44 24 08       	mov    %rax,0x8(%rsp)
  402134:	31 c0                	xor    %eax,%eax
  402136:	bb 01 00 00 00       	mov    $0x1,%ebx
  40213b:	4c 39 e3             	cmp    %r12,%rbx
  40213e:	73 47                	jae    402187 <rio_readlineb+0x74>
  402140:	48 8d 74 24 07       	lea    0x7(%rsp),%rsi
  402145:	ba 01 00 00 00       	mov    $0x1,%edx
  40214a:	4c 89 ef             	mov    %r13,%rdi
  40214d:	e8 36 ff ff ff       	callq  402088 <rio_read>
  402152:	83 f8 01             	cmp    $0x1,%eax
  402155:	75 1c                	jne    402173 <rio_readlineb+0x60>
  402157:	48 8d 45 01          	lea    0x1(%rbp),%rax
  40215b:	0f b6 54 24 07       	movzbl 0x7(%rsp),%edx
  402160:	88 55 00             	mov    %dl,0x0(%rbp)
  402163:	80 7c 24 07 0a       	cmpb   $0xa,0x7(%rsp)
  402168:	74 1a                	je     402184 <rio_readlineb+0x71>
  40216a:	48 83 c3 01          	add    $0x1,%rbx
  40216e:	48 89 c5             	mov    %rax,%rbp
  402171:	eb c8                	jmp    40213b <rio_readlineb+0x28>
  402173:	85 c0                	test   %eax,%eax
  402175:	75 32                	jne    4021a9 <rio_readlineb+0x96>
  402177:	48 83 fb 01          	cmp    $0x1,%rbx
  40217b:	75 0a                	jne    402187 <rio_readlineb+0x74>
  40217d:	b8 00 00 00 00       	mov    $0x0,%eax
  402182:	eb 0a                	jmp    40218e <rio_readlineb+0x7b>
  402184:	48 89 c5             	mov    %rax,%rbp
  402187:	c6 45 00 00          	movb   $0x0,0x0(%rbp)
  40218b:	48 89 d8             	mov    %rbx,%rax
  40218e:	48 8b 4c 24 08       	mov    0x8(%rsp),%rcx
  402193:	64 48 33 0c 25 28 00 	xor    %fs:0x28,%rcx
  40219a:	00 00 
  40219c:	75 14                	jne    4021b2 <rio_readlineb+0x9f>
  40219e:	48 83 c4 18          	add    $0x18,%rsp
  4021a2:	5b                   	pop    %rbx
  4021a3:	5d                   	pop    %rbp
  4021a4:	41 5c                	pop    %r12
  4021a6:	41 5d                	pop    %r13
  4021a8:	c3                   	retq   
  4021a9:	48 c7 c0 ff ff ff ff 	mov    $0xffffffffffffffff,%rax
  4021b0:	eb dc                	jmp    40218e <rio_readlineb+0x7b>
  4021b2:	e8 c9 ea ff ff       	callq  400c80 <__stack_chk_fail@plt>

00000000004021b7 <urlencode>:
  4021b7:	41 54                	push   %r12
  4021b9:	55                   	push   %rbp
  4021ba:	53                   	push   %rbx
  4021bb:	48 83 ec 10          	sub    $0x10,%rsp
  4021bf:	48 89 fb             	mov    %rdi,%rbx
  4021c2:	48 89 f5             	mov    %rsi,%rbp
  4021c5:	64 48 8b 04 25 28 00 	mov    %fs:0x28,%rax
  4021cc:	00 00 
  4021ce:	48 89 44 24 08       	mov    %rax,0x8(%rsp)
  4021d3:	31 c0                	xor    %eax,%eax
  4021d5:	48 c7 c1 ff ff ff ff 	mov    $0xffffffffffffffff,%rcx
  4021dc:	f2 ae                	repnz scas %es:(%rdi),%al
  4021de:	48 89 ce             	mov    %rcx,%rsi
  4021e1:	48 f7 d6             	not    %rsi
  4021e4:	8d 46 ff             	lea    -0x1(%rsi),%eax
  4021e7:	eb 0f                	jmp    4021f8 <urlencode+0x41>
  4021e9:	44 88 45 00          	mov    %r8b,0x0(%rbp)
  4021ed:	48 8d 6d 01          	lea    0x1(%rbp),%rbp
  4021f1:	48 83 c3 01          	add    $0x1,%rbx
  4021f5:	44 89 e0             	mov    %r12d,%eax
  4021f8:	44 8d 60 ff          	lea    -0x1(%rax),%r12d
  4021fc:	85 c0                	test   %eax,%eax
  4021fe:	0f 84 a8 00 00 00    	je     4022ac <urlencode+0xf5>
  402204:	44 0f b6 03          	movzbl (%rbx),%r8d
  402208:	41 80 f8 2a          	cmp    $0x2a,%r8b
  40220c:	0f 94 c2             	sete   %dl
  40220f:	41 80 f8 2d          	cmp    $0x2d,%r8b
  402213:	0f 94 c0             	sete   %al
  402216:	08 c2                	or     %al,%dl
  402218:	75 cf                	jne    4021e9 <urlencode+0x32>
  40221a:	41 80 f8 2e          	cmp    $0x2e,%r8b
  40221e:	74 c9                	je     4021e9 <urlencode+0x32>
  402220:	41 80 f8 5f          	cmp    $0x5f,%r8b
  402224:	74 c3                	je     4021e9 <urlencode+0x32>
  402226:	41 8d 40 d0          	lea    -0x30(%r8),%eax
  40222a:	3c 09                	cmp    $0x9,%al
  40222c:	76 bb                	jbe    4021e9 <urlencode+0x32>
  40222e:	41 8d 40 bf          	lea    -0x41(%r8),%eax
  402232:	3c 19                	cmp    $0x19,%al
  402234:	76 b3                	jbe    4021e9 <urlencode+0x32>
  402236:	41 8d 40 9f          	lea    -0x61(%r8),%eax
  40223a:	3c 19                	cmp    $0x19,%al
  40223c:	76 ab                	jbe    4021e9 <urlencode+0x32>
  40223e:	41 80 f8 20          	cmp    $0x20,%r8b
  402242:	74 56                	je     40229a <urlencode+0xe3>
  402244:	41 8d 40 e0          	lea    -0x20(%r8),%eax
  402248:	3c 5f                	cmp    $0x5f,%al
  40224a:	0f 96 c2             	setbe  %dl
  40224d:	41 80 f8 09          	cmp    $0x9,%r8b
  402251:	0f 94 c0             	sete   %al
  402254:	08 c2                	or     %al,%dl
  402256:	74 4f                	je     4022a7 <urlencode+0xf0>
  402258:	48 89 e7             	mov    %rsp,%rdi
  40225b:	45 0f b6 c0          	movzbl %r8b,%r8d
  40225f:	48 8d 0d 52 12 00 00 	lea    0x1252(%rip),%rcx        # 4034b8 <trans_char+0xa8>
  402266:	ba 08 00 00 00       	mov    $0x8,%edx
  40226b:	be 01 00 00 00       	mov    $0x1,%esi
  402270:	b8 00 00 00 00       	mov    $0x0,%eax
  402275:	e8 86 eb ff ff       	callq  400e00 <__sprintf_chk@plt>
  40227a:	0f b6 04 24          	movzbl (%rsp),%eax
  40227e:	88 45 00             	mov    %al,0x0(%rbp)
  402281:	0f b6 44 24 01       	movzbl 0x1(%rsp),%eax
  402286:	88 45 01             	mov    %al,0x1(%rbp)
  402289:	0f b6 44 24 02       	movzbl 0x2(%rsp),%eax
  40228e:	88 45 02             	mov    %al,0x2(%rbp)
  402291:	48 8d 6d 03          	lea    0x3(%rbp),%rbp
  402295:	e9 57 ff ff ff       	jmpq   4021f1 <urlencode+0x3a>
  40229a:	c6 45 00 2b          	movb   $0x2b,0x0(%rbp)
  40229e:	48 8d 6d 01          	lea    0x1(%rbp),%rbp
  4022a2:	e9 4a ff ff ff       	jmpq   4021f1 <urlencode+0x3a>
  4022a7:	b8 ff ff ff ff       	mov    $0xffffffff,%eax
  4022ac:	48 8b 74 24 08       	mov    0x8(%rsp),%rsi
  4022b1:	64 48 33 34 25 28 00 	xor    %fs:0x28,%rsi
  4022b8:	00 00 
  4022ba:	75 09                	jne    4022c5 <urlencode+0x10e>
  4022bc:	48 83 c4 10          	add    $0x10,%rsp
  4022c0:	5b                   	pop    %rbx
  4022c1:	5d                   	pop    %rbp
  4022c2:	41 5c                	pop    %r12
  4022c4:	c3                   	retq   
  4022c5:	e8 b6 e9 ff ff       	callq  400c80 <__stack_chk_fail@plt>

00000000004022ca <submitr>:
  4022ca:	41 57                	push   %r15
  4022cc:	41 56                	push   %r14
  4022ce:	41 55                	push   %r13
  4022d0:	41 54                	push   %r12
  4022d2:	55                   	push   %rbp
  4022d3:	53                   	push   %rbx
  4022d4:	48 81 ec 58 a0 00 00 	sub    $0xa058,%rsp
  4022db:	48 89 7c 24 08       	mov    %rdi,0x8(%rsp)
  4022e0:	41 89 f4             	mov    %esi,%r12d
  4022e3:	49 89 d7             	mov    %rdx,%r15
  4022e6:	49 89 ce             	mov    %rcx,%r14
  4022e9:	4c 89 04 24          	mov    %r8,(%rsp)
  4022ed:	4d 89 cd             	mov    %r9,%r13
  4022f0:	48 8b ac 24 90 a0 00 	mov    0xa090(%rsp),%rbp
  4022f7:	00 
  4022f8:	64 48 8b 04 25 28 00 	mov    %fs:0x28,%rax
  4022ff:	00 00 
  402301:	48 89 84 24 48 a0 00 	mov    %rax,0xa048(%rsp)
  402308:	00 
  402309:	31 c0                	xor    %eax,%eax
  40230b:	ba 00 00 00 00       	mov    $0x0,%edx
  402310:	be 01 00 00 00       	mov    $0x1,%esi
  402315:	bf 02 00 00 00       	mov    $0x2,%edi
  40231a:	e8 f1 ea ff ff       	callq  400e10 <socket@plt>
  40231f:	85 c0                	test   %eax,%eax
  402321:	0f 88 ff 02 00 00    	js     402626 <submitr+0x35c>
  402327:	89 c3                	mov    %eax,%ebx
  402329:	66 c7 44 24 10 02 00 	movw   $0x2,0x10(%rsp)
  402330:	66 41 c1 cc 08       	ror    $0x8,%r12w
  402335:	66 44 89 64 24 12    	mov    %r12w,0x12(%rsp)
  40233b:	4c 8d 64 24 10       	lea    0x10(%rsp),%r12
  402340:	48 8d 74 24 14       	lea    0x14(%rsp),%rsi
  402345:	48 8d 3d 73 11 00 00 	lea    0x1173(%rip),%rdi        # 4034bf <trans_char+0xaf>
  40234c:	b8 00 00 00 00       	mov    $0x0,%eax
  402351:	e8 fa e9 ff ff       	callq  400d50 <inet_aton@plt>
  402356:	ba 10 00 00 00       	mov    $0x10,%edx
  40235b:	4c 89 e6             	mov    %r12,%rsi
  40235e:	89 df                	mov    %ebx,%edi
  402360:	e8 7b ea ff ff       	callq  400de0 <connect@plt>
  402365:	85 c0                	test   %eax,%eax
  402367:	0f 88 05 03 00 00    	js     402672 <submitr+0x3a8>
  40236d:	48 c7 c6 ff ff ff ff 	mov    $0xffffffffffffffff,%rsi
  402374:	b8 00 00 00 00       	mov    $0x0,%eax
  402379:	48 89 f1             	mov    %rsi,%rcx
  40237c:	4c 89 ef             	mov    %r13,%rdi
  40237f:	f2 ae                	repnz scas %es:(%rdi),%al
  402381:	48 89 ca             	mov    %rcx,%rdx
  402384:	48 f7 d2             	not    %rdx
  402387:	48 89 f1             	mov    %rsi,%rcx
  40238a:	4c 89 ff             	mov    %r15,%rdi
  40238d:	f2 ae                	repnz scas %es:(%rdi),%al
  40238f:	48 f7 d1             	not    %rcx
  402392:	49 89 c8             	mov    %rcx,%r8
  402395:	48 89 f1             	mov    %rsi,%rcx
  402398:	4c 89 f7             	mov    %r14,%rdi
  40239b:	f2 ae                	repnz scas %es:(%rdi),%al
  40239d:	48 f7 d1             	not    %rcx
  4023a0:	4d 8d 44 08 fe       	lea    -0x2(%r8,%rcx,1),%r8
  4023a5:	48 89 f1             	mov    %rsi,%rcx
  4023a8:	48 8b 3c 24          	mov    (%rsp),%rdi
  4023ac:	f2 ae                	repnz scas %es:(%rdi),%al
  4023ae:	48 89 c8             	mov    %rcx,%rax
  4023b1:	48 f7 d0             	not    %rax
  4023b4:	49 8d 4c 00 ff       	lea    -0x1(%r8,%rax,1),%rcx
  4023b9:	48 8d 44 52 fd       	lea    -0x3(%rdx,%rdx,2),%rax
  4023be:	48 8d 84 01 80 00 00 	lea    0x80(%rcx,%rax,1),%rax
  4023c5:	00 
  4023c6:	48 3d 00 20 00 00    	cmp    $0x2000,%rax
  4023cc:	0f 87 fa 02 00 00    	ja     4026cc <submitr+0x402>
  4023d2:	48 8d b4 24 40 40 00 	lea    0x4040(%rsp),%rsi
  4023d9:	00 
  4023da:	b9 00 04 00 00       	mov    $0x400,%ecx
  4023df:	b8 00 00 00 00       	mov    $0x0,%eax
  4023e4:	48 89 f7             	mov    %rsi,%rdi
  4023e7:	f3 48 ab             	rep stos %rax,%es:(%rdi)
  4023ea:	4c 89 ef             	mov    %r13,%rdi
  4023ed:	e8 c5 fd ff ff       	callq  4021b7 <urlencode>
  4023f2:	85 c0                	test   %eax,%eax
  4023f4:	0f 88 45 03 00 00    	js     40273f <submitr+0x475>
  4023fa:	4c 8d a4 24 40 20 00 	lea    0x2040(%rsp),%r12
  402401:	00 
  402402:	ff 74 24 08          	pushq  0x8(%rsp)
  402406:	48 8d 84 24 48 40 00 	lea    0x4048(%rsp),%rax
  40240d:	00 
  40240e:	50                   	push   %rax
  40240f:	4d 89 f9             	mov    %r15,%r9
  402412:	4d 89 f0             	mov    %r14,%r8
  402415:	48 8d 0d 2c 10 00 00 	lea    0x102c(%rip),%rcx        # 403448 <trans_char+0x38>
  40241c:	ba 00 20 00 00       	mov    $0x2000,%edx
  402421:	be 01 00 00 00       	mov    $0x1,%esi
  402426:	4c 89 e7             	mov    %r12,%rdi
  402429:	b8 00 00 00 00       	mov    $0x0,%eax
  40242e:	e8 cd e9 ff ff       	callq  400e00 <__sprintf_chk@plt>
  402433:	48 c7 c1 ff ff ff ff 	mov    $0xffffffffffffffff,%rcx
  40243a:	b8 00 00 00 00       	mov    $0x0,%eax
  40243f:	4c 89 e7             	mov    %r12,%rdi
  402442:	f2 ae                	repnz scas %es:(%rdi),%al
  402444:	48 89 ca             	mov    %rcx,%rdx
  402447:	48 f7 d2             	not    %rdx
  40244a:	48 8d 52 ff          	lea    -0x1(%rdx),%rdx
  40244e:	4c 89 e6             	mov    %r12,%rsi
  402451:	89 df                	mov    %ebx,%edi
  402453:	e8 d2 fb ff ff       	callq  40202a <rio_writen>
  402458:	48 83 c4 10          	add    $0x10,%rsp
  40245c:	48 85 c0             	test   %rax,%rax
  40245f:	0f 88 65 03 00 00    	js     4027ca <submitr+0x500>
  402465:	4c 8d 64 24 20       	lea    0x20(%rsp),%r12
  40246a:	89 de                	mov    %ebx,%esi
  40246c:	4c 89 e7             	mov    %r12,%rdi
  40246f:	e8 74 fb ff ff       	callq  401fe8 <rio_readinitb>
  402474:	48 8d b4 24 40 20 00 	lea    0x2040(%rsp),%rsi
  40247b:	00 
  40247c:	ba 00 20 00 00       	mov    $0x2000,%edx
  402481:	4c 89 e7             	mov    %r12,%rdi
  402484:	e8 8a fc ff ff       	callq  402113 <rio_readlineb>
  402489:	48 85 c0             	test   %rax,%rax
  40248c:	0f 8e a7 03 00 00    	jle    402839 <submitr+0x56f>
  402492:	48 8d 94 24 40 60 00 	lea    0x6040(%rsp),%rdx
  402499:	00 
  40249a:	41 be 00 00 00 00    	mov    $0x0,%r14d
  4024a0:	b9 00 04 00 00       	mov    $0x400,%ecx
  4024a5:	48 89 d7             	mov    %rdx,%rdi
  4024a8:	4c 89 f0             	mov    %r14,%rax
  4024ab:	f3 48 ab             	rep stos %rax,%es:(%rdi)
  4024ae:	48 8b 84 24 40 20 00 	mov    0x2040(%rsp),%rax
  4024b5:	00 
  4024b6:	48 89 84 24 40 60 00 	mov    %rax,0x6040(%rsp)
  4024bd:	00 
  4024be:	c6 84 24 3f 20 00 00 	movb   $0x0,0x203f(%rsp)
  4024c5:	00 
  4024c6:	48 8d bc 24 3c 20 00 	lea    0x203c(%rsp),%rdi
  4024cd:	00 
  4024ce:	4c 8d ac 24 40 20 00 	lea    0x2040(%rsp),%r13
  4024d5:	00 
  4024d6:	0f b7 84 24 49 20 00 	movzwl 0x2049(%rsp),%eax
  4024dd:	00 
  4024de:	66 89 84 24 3c 20 00 	mov    %ax,0x203c(%rsp)
  4024e5:	00 
  4024e6:	0f b6 84 24 4b 20 00 	movzbl 0x204b(%rsp),%eax
  4024ed:	00 
  4024ee:	88 84 24 3e 20 00 00 	mov    %al,0x203e(%rsp)
  4024f5:	ba 0a 00 00 00       	mov    $0xa,%edx
  4024fa:	be 00 00 00 00       	mov    $0x0,%esi
  4024ff:	e8 1c e8 ff ff       	callq  400d20 <strtol@plt>
  402504:	49 89 c4             	mov    %rax,%r12
  402507:	4c 8d 84 24 40 80 00 	lea    0x8040(%rsp),%r8
  40250e:	00 
  40250f:	b9 00 04 00 00       	mov    $0x400,%ecx
  402514:	4c 89 c7             	mov    %r8,%rdi
  402517:	4c 89 f0             	mov    %r14,%rax
  40251a:	f3 48 ab             	rep stos %rax,%es:(%rdi)
  40251d:	48 8d bc 24 33 20 00 	lea    0x2033(%rsp),%rdi
  402524:	00 
  402525:	48 c7 c1 ff ff ff ff 	mov    $0xffffffffffffffff,%rcx
  40252c:	f2 ae                	repnz scas %es:(%rdi),%al
  40252e:	48 89 ca             	mov    %rcx,%rdx
  402531:	48 f7 d2             	not    %rdx
  402534:	48 8d 52 ff          	lea    -0x1(%rdx),%rdx
  402538:	49 8d 75 0d          	lea    0xd(%r13),%rsi
  40253c:	b9 00 20 00 00       	mov    $0x2000,%ecx
  402541:	4c 89 c7             	mov    %r8,%rdi
  402544:	e8 c7 e7 ff ff       	callq  400d10 <__memcpy_chk@plt>
  402549:	48 8d b4 24 40 20 00 	lea    0x2040(%rsp),%rsi
  402550:	00 
  402551:	b9 03 00 00 00       	mov    $0x3,%ecx
  402556:	48 8d 3d 76 0f 00 00 	lea    0xf76(%rip),%rdi        # 4034d3 <trans_char+0xc3>
  40255d:	f3 a6                	repz cmpsb %es:(%rdi),%ds:(%rsi)
  40255f:	0f 97 c0             	seta   %al
  402562:	1c 00                	sbb    $0x0,%al
  402564:	84 c0                	test   %al,%al
  402566:	0f 84 4b 03 00 00    	je     4028b7 <submitr+0x5ed>
  40256c:	48 8d b4 24 40 20 00 	lea    0x2040(%rsp),%rsi
  402573:	00 
  402574:	48 8d 7c 24 20       	lea    0x20(%rsp),%rdi
  402579:	ba 00 20 00 00       	mov    $0x2000,%edx
  40257e:	e8 90 fb ff ff       	callq  402113 <rio_readlineb>
  402583:	48 85 c0             	test   %rax,%rax
  402586:	7f c1                	jg     402549 <submitr+0x27f>
  402588:	48 b8 45 72 72 6f 72 	movabs $0x43203a726f727245,%rax
  40258f:	3a 20 43 
  402592:	48 ba 6c 69 65 6e 74 	movabs $0x6e7520746e65696c,%rdx
  402599:	20 75 6e 
  40259c:	48 89 45 00          	mov    %rax,0x0(%rbp)
  4025a0:	48 89 55 08          	mov    %rdx,0x8(%rbp)
  4025a4:	48 b8 61 62 6c 65 20 	movabs $0x206f7420656c6261,%rax
  4025ab:	74 6f 20 
  4025ae:	48 ba 72 65 61 64 20 	movabs $0x6165682064616572,%rdx
  4025b5:	68 65 61 
  4025b8:	48 89 45 10          	mov    %rax,0x10(%rbp)
  4025bc:	48 89 55 18          	mov    %rdx,0x18(%rbp)
  4025c0:	48 b8 64 65 72 73 20 	movabs $0x6f72662073726564,%rax
  4025c7:	66 72 6f 
  4025ca:	48 ba 6d 20 74 68 65 	movabs $0x657220656874206d,%rdx
  4025d1:	20 72 65 
  4025d4:	48 89 45 20          	mov    %rax,0x20(%rbp)
  4025d8:	48 89 55 28          	mov    %rdx,0x28(%rbp)
  4025dc:	48 b8 73 75 6c 74 20 	movabs $0x72657320746c7573,%rax
  4025e3:	73 65 72 
  4025e6:	48 89 45 30          	mov    %rax,0x30(%rbp)
  4025ea:	c7 45 38 76 65 72 00 	movl   $0x726576,0x38(%rbp)
  4025f1:	89 df                	mov    %ebx,%edi
  4025f3:	e8 c8 e6 ff ff       	callq  400cc0 <close@plt>
  4025f8:	b8 ff ff ff ff       	mov    $0xffffffff,%eax
  4025fd:	48 8b 9c 24 48 a0 00 	mov    0xa048(%rsp),%rbx
  402604:	00 
  402605:	64 48 33 1c 25 28 00 	xor    %fs:0x28,%rbx
  40260c:	00 00 
  40260e:	0f 85 14 04 00 00    	jne    402a28 <submitr+0x75e>
  402614:	48 81 c4 58 a0 00 00 	add    $0xa058,%rsp
  40261b:	5b                   	pop    %rbx
  40261c:	5d                   	pop    %rbp
  40261d:	41 5c                	pop    %r12
  40261f:	41 5d                	pop    %r13
  402621:	41 5e                	pop    %r14
  402623:	41 5f                	pop    %r15
  402625:	c3                   	retq   
  402626:	48 b8 45 72 72 6f 72 	movabs $0x43203a726f727245,%rax
  40262d:	3a 20 43 
  402630:	48 ba 6c 69 65 6e 74 	movabs $0x6e7520746e65696c,%rdx
  402637:	20 75 6e 
  40263a:	48 89 45 00          	mov    %rax,0x0(%rbp)
  40263e:	48 89 55 08          	mov    %rdx,0x8(%rbp)
  402642:	48 b8 61 62 6c 65 20 	movabs $0x206f7420656c6261,%rax
  402649:	74 6f 20 
  40264c:	48 ba 63 72 65 61 74 	movabs $0x7320657461657263,%rdx
  402653:	65 20 73 
  402656:	48 89 45 10          	mov    %rax,0x10(%rbp)
  40265a:	48 89 55 18          	mov    %rdx,0x18(%rbp)
  40265e:	c7 45 20 6f 63 6b 65 	movl   $0x656b636f,0x20(%rbp)
  402665:	66 c7 45 24 74 00    	movw   $0x74,0x24(%rbp)
  40266b:	b8 ff ff ff ff       	mov    $0xffffffff,%eax
  402670:	eb 8b                	jmp    4025fd <submitr+0x333>
  402672:	48 b8 45 72 72 6f 72 	movabs $0x55203a726f727245,%rax
  402679:	3a 20 55 
  40267c:	48 ba 6e 61 62 6c 65 	movabs $0x6f7420656c62616e,%rdx
  402683:	20 74 6f 
  402686:	48 89 45 00          	mov    %rax,0x0(%rbp)
  40268a:	48 89 55 08          	mov    %rdx,0x8(%rbp)
  40268e:	48 b8 20 63 6f 6e 6e 	movabs $0x7463656e6e6f6320,%rax
  402695:	65 63 74 
  402698:	48 ba 20 74 6f 20 74 	movabs $0x20656874206f7420,%rdx
  40269f:	68 65 20 
  4026a2:	48 89 45 10          	mov    %rax,0x10(%rbp)
  4026a6:	48 89 55 18          	mov    %rdx,0x18(%rbp)
  4026aa:	c7 45 20 73 65 72 76 	movl   $0x76726573,0x20(%rbp)
  4026b1:	66 c7 45 24 65 72    	movw   $0x7265,0x24(%rbp)
  4026b7:	c6 45 26 00          	movb   $0x0,0x26(%rbp)
  4026bb:	89 df                	mov    %ebx,%edi
  4026bd:	e8 fe e5 ff ff       	callq  400cc0 <close@plt>
  4026c2:	b8 ff ff ff ff       	mov    $0xffffffff,%eax
  4026c7:	e9 31 ff ff ff       	jmpq   4025fd <submitr+0x333>
  4026cc:	48 b8 45 72 72 6f 72 	movabs $0x52203a726f727245,%rax
  4026d3:	3a 20 52 
  4026d6:	48 ba 65 73 75 6c 74 	movabs $0x747320746c757365,%rdx
  4026dd:	20 73 74 
  4026e0:	48 89 45 00          	mov    %rax,0x0(%rbp)
  4026e4:	48 89 55 08          	mov    %rdx,0x8(%rbp)
  4026e8:	48 b8 72 69 6e 67 20 	movabs $0x6f6f7420676e6972,%rax
  4026ef:	74 6f 6f 
  4026f2:	48 ba 20 6c 61 72 67 	movabs $0x202e656772616c20,%rdx
  4026f9:	65 2e 20 
  4026fc:	48 89 45 10          	mov    %rax,0x10(%rbp)
  402700:	48 89 55 18          	mov    %rdx,0x18(%rbp)
  402704:	48 b8 49 6e 63 72 65 	movabs $0x6573616572636e49,%rax
  40270b:	61 73 65 
  40270e:	48 ba 20 53 55 42 4d 	movabs $0x5254494d42555320,%rdx
  402715:	49 54 52 
  402718:	48 89 45 20          	mov    %rax,0x20(%rbp)
  40271c:	48 89 55 28          	mov    %rdx,0x28(%rbp)
  402720:	48 b8 5f 4d 41 58 42 	movabs $0x46554258414d5f,%rax
  402727:	55 46 00 
  40272a:	48 89 45 30          	mov    %rax,0x30(%rbp)
  40272e:	89 df                	mov    %ebx,%edi
  402730:	e8 8b e5 ff ff       	callq  400cc0 <close@plt>
  402735:	b8 ff ff ff ff       	mov    $0xffffffff,%eax
  40273a:	e9 be fe ff ff       	jmpq   4025fd <submitr+0x333>
  40273f:	48 b8 45 72 72 6f 72 	movabs $0x52203a726f727245,%rax
  402746:	3a 20 52 
  402749:	48 ba 65 73 75 6c 74 	movabs $0x747320746c757365,%rdx
  402750:	20 73 74 
  402753:	48 89 45 00          	mov    %rax,0x0(%rbp)
  402757:	48 89 55 08          	mov    %rdx,0x8(%rbp)
  40275b:	48 b8 72 69 6e 67 20 	movabs $0x6e6f6320676e6972,%rax
  402762:	63 6f 6e 
  402765:	48 ba 74 61 69 6e 73 	movabs $0x6e6120736e696174,%rdx
  40276c:	20 61 6e 
  40276f:	48 89 45 10          	mov    %rax,0x10(%rbp)
  402773:	48 89 55 18          	mov    %rdx,0x18(%rbp)
  402777:	48 b8 20 69 6c 6c 65 	movabs $0x6c6167656c6c6920,%rax
  40277e:	67 61 6c 
  402781:	48 ba 20 6f 72 20 75 	movabs $0x72706e7520726f20,%rdx
  402788:	6e 70 72 
  40278b:	48 89 45 20          	mov    %rax,0x20(%rbp)
  40278f:	48 89 55 28          	mov    %rdx,0x28(%rbp)
  402793:	48 b8 69 6e 74 61 62 	movabs $0x20656c6261746e69,%rax
  40279a:	6c 65 20 
  40279d:	48 ba 63 68 61 72 61 	movabs $0x6574636172616863,%rdx
  4027a4:	63 74 65 
  4027a7:	48 89 45 30          	mov    %rax,0x30(%rbp)
  4027ab:	48 89 55 38          	mov    %rdx,0x38(%rbp)
  4027af:	66 c7 45 40 72 2e    	movw   $0x2e72,0x40(%rbp)
  4027b5:	c6 45 42 00          	movb   $0x0,0x42(%rbp)
  4027b9:	89 df                	mov    %ebx,%edi
  4027bb:	e8 00 e5 ff ff       	callq  400cc0 <close@plt>
  4027c0:	b8 ff ff ff ff       	mov    $0xffffffff,%eax
  4027c5:	e9 33 fe ff ff       	jmpq   4025fd <submitr+0x333>
  4027ca:	48 b8 45 72 72 6f 72 	movabs $0x43203a726f727245,%rax
  4027d1:	3a 20 43 
  4027d4:	48 ba 6c 69 65 6e 74 	movabs $0x6e7520746e65696c,%rdx
  4027db:	20 75 6e 
  4027de:	48 89 45 00          	mov    %rax,0x0(%rbp)
  4027e2:	48 89 55 08          	mov    %rdx,0x8(%rbp)
  4027e6:	48 b8 61 62 6c 65 20 	movabs $0x206f7420656c6261,%rax
  4027ed:	74 6f 20 
  4027f0:	48 ba 77 72 69 74 65 	movabs $0x6f74206574697277,%rdx
  4027f7:	20 74 6f 
  4027fa:	48 89 45 10          	mov    %rax,0x10(%rbp)
  4027fe:	48 89 55 18          	mov    %rdx,0x18(%rbp)
  402802:	48 b8 20 74 68 65 20 	movabs $0x7365722065687420,%rax
  402809:	72 65 73 
  40280c:	48 ba 75 6c 74 20 73 	movabs $0x7672657320746c75,%rdx
  402813:	65 72 76 
  402816:	48 89 45 20          	mov    %rax,0x20(%rbp)
  40281a:	48 89 55 28          	mov    %rdx,0x28(%rbp)
  40281e:	66 c7 45 30 65 72    	movw   $0x7265,0x30(%rbp)
  402824:	c6 45 32 00          	movb   $0x0,0x32(%rbp)
  402828:	89 df                	mov    %ebx,%edi
  40282a:	e8 91 e4 ff ff       	callq  400cc0 <close@plt>
  40282f:	b8 ff ff ff ff       	mov    $0xffffffff,%eax
  402834:	e9 c4 fd ff ff       	jmpq   4025fd <submitr+0x333>
  402839:	48 b8 45 72 72 6f 72 	movabs $0x43203a726f727245,%rax
  402840:	3a 20 43 
  402843:	48 ba 6c 69 65 6e 74 	movabs $0x6e7520746e65696c,%rdx
  40284a:	20 75 6e 
  40284d:	48 89 45 00          	mov    %rax,0x0(%rbp)
  402851:	48 89 55 08          	mov    %rdx,0x8(%rbp)
  402855:	48 b8 61 62 6c 65 20 	movabs $0x206f7420656c6261,%rax
  40285c:	74 6f 20 
  40285f:	48 ba 72 65 61 64 20 	movabs $0x7269662064616572,%rdx
  402866:	66 69 72 
  402869:	48 89 45 10          	mov    %rax,0x10(%rbp)
  40286d:	48 89 55 18          	mov    %rdx,0x18(%rbp)
  402871:	48 b8 73 74 20 68 65 	movabs $0x6564616568207473,%rax
  402878:	61 64 65 
  40287b:	48 ba 72 20 66 72 6f 	movabs $0x72206d6f72662072,%rdx
  402882:	6d 20 72 
  402885:	48 89 45 20          	mov    %rax,0x20(%rbp)
  402889:	48 89 55 28          	mov    %rdx,0x28(%rbp)
  40288d:	48 b8 65 73 75 6c 74 	movabs $0x657320746c757365,%rax
  402894:	20 73 65 
  402897:	48 89 45 30          	mov    %rax,0x30(%rbp)
  40289b:	c7 45 38 72 76 65 72 	movl   $0x72657672,0x38(%rbp)
  4028a2:	c6 45 3c 00          	movb   $0x0,0x3c(%rbp)
  4028a6:	89 df                	mov    %ebx,%edi
  4028a8:	e8 13 e4 ff ff       	callq  400cc0 <close@plt>
  4028ad:	b8 ff ff ff ff       	mov    $0xffffffff,%eax
  4028b2:	e9 46 fd ff ff       	jmpq   4025fd <submitr+0x333>
  4028b7:	48 8d b4 24 40 20 00 	lea    0x2040(%rsp),%rsi
  4028be:	00 
  4028bf:	48 8d 7c 24 20       	lea    0x20(%rsp),%rdi
  4028c4:	ba 00 20 00 00       	mov    $0x2000,%edx
  4028c9:	e8 45 f8 ff ff       	callq  402113 <rio_readlineb>
  4028ce:	48 85 c0             	test   %rax,%rax
  4028d1:	0f 8e 91 00 00 00    	jle    402968 <submitr+0x69e>
  4028d7:	41 81 fc c8 00 00 00 	cmp    $0xc8,%r12d
  4028de:	0f 85 08 01 00 00    	jne    4029ec <submitr+0x722>
  4028e4:	48 8d b4 24 40 20 00 	lea    0x2040(%rsp),%rsi
  4028eb:	00 
  4028ec:	48 89 ef             	mov    %rbp,%rdi
  4028ef:	e8 5c e3 ff ff       	callq  400c50 <strcpy@plt>
  4028f4:	89 df                	mov    %ebx,%edi
  4028f6:	e8 c5 e3 ff ff       	callq  400cc0 <close@plt>
  4028fb:	b9 04 00 00 00       	mov    $0x4,%ecx
  402900:	48 8d 3d c6 0b 00 00 	lea    0xbc6(%rip),%rdi        # 4034cd <trans_char+0xbd>
  402907:	48 89 ee             	mov    %rbp,%rsi
  40290a:	f3 a6                	repz cmpsb %es:(%rdi),%ds:(%rsi)
  40290c:	0f 97 c0             	seta   %al
  40290f:	1c 00                	sbb    $0x0,%al
  402911:	0f be c0             	movsbl %al,%eax
  402914:	85 c0                	test   %eax,%eax
  402916:	0f 84 e1 fc ff ff    	je     4025fd <submitr+0x333>
  40291c:	b9 05 00 00 00       	mov    $0x5,%ecx
  402921:	48 8d 3d a9 0b 00 00 	lea    0xba9(%rip),%rdi        # 4034d1 <trans_char+0xc1>
  402928:	48 89 ee             	mov    %rbp,%rsi
  40292b:	f3 a6                	repz cmpsb %es:(%rdi),%ds:(%rsi)
  40292d:	0f 97 c0             	seta   %al
  402930:	1c 00                	sbb    $0x0,%al
  402932:	0f be c0             	movsbl %al,%eax
  402935:	85 c0                	test   %eax,%eax
  402937:	0f 84 c0 fc ff ff    	je     4025fd <submitr+0x333>
  40293d:	b9 03 00 00 00       	mov    $0x3,%ecx
  402942:	48 8d 3d 8d 0b 00 00 	lea    0xb8d(%rip),%rdi        # 4034d6 <trans_char+0xc6>
  402949:	48 89 ee             	mov    %rbp,%rsi
  40294c:	f3 a6                	repz cmpsb %es:(%rdi),%ds:(%rsi)
  40294e:	0f 97 c0             	seta   %al
  402951:	1c 00                	sbb    $0x0,%al
  402953:	0f be c0             	movsbl %al,%eax
  402956:	85 c0                	test   %eax,%eax
  402958:	0f 84 9f fc ff ff    	je     4025fd <submitr+0x333>
  40295e:	b8 ff ff ff ff       	mov    $0xffffffff,%eax
  402963:	e9 95 fc ff ff       	jmpq   4025fd <submitr+0x333>
  402968:	48 b8 45 72 72 6f 72 	movabs $0x43203a726f727245,%rax
  40296f:	3a 20 43 
  402972:	48 ba 6c 69 65 6e 74 	movabs $0x6e7520746e65696c,%rdx
  402979:	20 75 6e 
  40297c:	48 89 45 00          	mov    %rax,0x0(%rbp)
  402980:	48 89 55 08          	mov    %rdx,0x8(%rbp)
  402984:	48 b8 61 62 6c 65 20 	movabs $0x206f7420656c6261,%rax
  40298b:	74 6f 20 
  40298e:	48 ba 72 65 61 64 20 	movabs $0x6174732064616572,%rdx
  402995:	73 74 61 
  402998:	48 89 45 10          	mov    %rax,0x10(%rbp)
  40299c:	48 89 55 18          	mov    %rdx,0x18(%rbp)
  4029a0:	48 b8 74 75 73 20 6d 	movabs $0x7373656d20737574,%rax
  4029a7:	65 73 73 
  4029aa:	48 ba 61 67 65 20 66 	movabs $0x6d6f726620656761,%rdx
  4029b1:	72 6f 6d 
  4029b4:	48 89 45 20          	mov    %rax,0x20(%rbp)
  4029b8:	48 89 55 28          	mov    %rdx,0x28(%rbp)
  4029bc:	48 b8 20 72 65 73 75 	movabs $0x20746c7573657220,%rax
  4029c3:	6c 74 20 
  4029c6:	48 89 45 30          	mov    %rax,0x30(%rbp)
  4029ca:	c7 45 38 73 65 72 76 	movl   $0x76726573,0x38(%rbp)
  4029d1:	66 c7 45 3c 65 72    	movw   $0x7265,0x3c(%rbp)
  4029d7:	c6 45 3e 00          	movb   $0x0,0x3e(%rbp)
  4029db:	89 df                	mov    %ebx,%edi
  4029dd:	e8 de e2 ff ff       	callq  400cc0 <close@plt>
  4029e2:	b8 ff ff ff ff       	mov    $0xffffffff,%eax
  4029e7:	e9 11 fc ff ff       	jmpq   4025fd <submitr+0x333>
  4029ec:	4c 8d 8c 24 40 80 00 	lea    0x8040(%rsp),%r9
  4029f3:	00 
  4029f4:	45 89 e0             	mov    %r12d,%r8d
  4029f7:	48 8d 0d 8a 0a 00 00 	lea    0xa8a(%rip),%rcx        # 403488 <trans_char+0x78>
  4029fe:	48 c7 c2 ff ff ff ff 	mov    $0xffffffffffffffff,%rdx
  402a05:	be 01 00 00 00       	mov    $0x1,%esi
  402a0a:	48 89 ef             	mov    %rbp,%rdi
  402a0d:	b8 00 00 00 00       	mov    $0x0,%eax
  402a12:	e8 e9 e3 ff ff       	callq  400e00 <__sprintf_chk@plt>
  402a17:	89 df                	mov    %ebx,%edi
  402a19:	e8 a2 e2 ff ff       	callq  400cc0 <close@plt>
  402a1e:	b8 ff ff ff ff       	mov    $0xffffffff,%eax
  402a23:	e9 d5 fb ff ff       	jmpq   4025fd <submitr+0x333>
  402a28:	e8 53 e2 ff ff       	callq  400c80 <__stack_chk_fail@plt>

0000000000402a2d <init_timeout>:
  402a2d:	85 ff                	test   %edi,%edi
  402a2f:	74 28                	je     402a59 <init_timeout+0x2c>
  402a31:	53                   	push   %rbx
  402a32:	89 fb                	mov    %edi,%ebx
  402a34:	85 ff                	test   %edi,%edi
  402a36:	78 1a                	js     402a52 <init_timeout+0x25>
  402a38:	48 8d 35 bb f5 ff ff 	lea    -0xa45(%rip),%rsi        # 401ffa <sigalrm_handler>
  402a3f:	bf 0e 00 00 00       	mov    $0xe,%edi
  402a44:	e8 97 e2 ff ff       	callq  400ce0 <signal@plt>
  402a49:	89 df                	mov    %ebx,%edi
  402a4b:	e8 60 e2 ff ff       	callq  400cb0 <alarm@plt>
  402a50:	5b                   	pop    %rbx
  402a51:	c3                   	retq   
  402a52:	bb 00 00 00 00       	mov    $0x0,%ebx
  402a57:	eb df                	jmp    402a38 <init_timeout+0xb>
  402a59:	f3 c3                	repz retq 

0000000000402a5b <init_driver>:
  402a5b:	41 54                	push   %r12
  402a5d:	55                   	push   %rbp
  402a5e:	53                   	push   %rbx
  402a5f:	48 83 ec 20          	sub    $0x20,%rsp
  402a63:	49 89 fc             	mov    %rdi,%r12
  402a66:	64 48 8b 04 25 28 00 	mov    %fs:0x28,%rax
  402a6d:	00 00 
  402a6f:	48 89 44 24 18       	mov    %rax,0x18(%rsp)
  402a74:	31 c0                	xor    %eax,%eax
  402a76:	be 01 00 00 00       	mov    $0x1,%esi
  402a7b:	bf 0d 00 00 00       	mov    $0xd,%edi
  402a80:	e8 5b e2 ff ff       	callq  400ce0 <signal@plt>
  402a85:	be 01 00 00 00       	mov    $0x1,%esi
  402a8a:	bf 1d 00 00 00       	mov    $0x1d,%edi
  402a8f:	e8 4c e2 ff ff       	callq  400ce0 <signal@plt>
  402a94:	be 01 00 00 00       	mov    $0x1,%esi
  402a99:	bf 1d 00 00 00       	mov    $0x1d,%edi
  402a9e:	e8 3d e2 ff ff       	callq  400ce0 <signal@plt>
  402aa3:	ba 00 00 00 00       	mov    $0x0,%edx
  402aa8:	be 01 00 00 00       	mov    $0x1,%esi
  402aad:	bf 02 00 00 00       	mov    $0x2,%edi
  402ab2:	e8 59 e3 ff ff       	callq  400e10 <socket@plt>
  402ab7:	85 c0                	test   %eax,%eax
  402ab9:	0f 88 a3 00 00 00    	js     402b62 <init_driver+0x107>
  402abf:	89 c3                	mov    %eax,%ebx
  402ac1:	48 8d 3d 11 0a 00 00 	lea    0xa11(%rip),%rdi        # 4034d9 <trans_char+0xc9>
  402ac8:	e8 23 e2 ff ff       	callq  400cf0 <gethostbyname@plt>
  402acd:	48 85 c0             	test   %rax,%rax
  402ad0:	0f 84 df 00 00 00    	je     402bb5 <init_driver+0x15a>
  402ad6:	48 89 e5             	mov    %rsp,%rbp
  402ad9:	48 c7 44 24 02 00 00 	movq   $0x0,0x2(%rsp)
  402ae0:	00 00 
  402ae2:	c7 45 0a 00 00 00 00 	movl   $0x0,0xa(%rbp)
  402ae9:	66 c7 45 0e 00 00    	movw   $0x0,0xe(%rbp)
  402aef:	66 c7 04 24 02 00    	movw   $0x2,(%rsp)
  402af5:	48 63 50 14          	movslq 0x14(%rax),%rdx
  402af9:	48 8b 40 18          	mov    0x18(%rax),%rax
  402afd:	48 8b 30             	mov    (%rax),%rsi
  402b00:	48 8d 7d 04          	lea    0x4(%rbp),%rdi
  402b04:	b9 0c 00 00 00       	mov    $0xc,%ecx
  402b09:	e8 f2 e1 ff ff       	callq  400d00 <__memmove_chk@plt>
  402b0e:	66 c7 44 24 02 c7 3d 	movw   $0x3dc7,0x2(%rsp)
  402b15:	ba 10 00 00 00       	mov    $0x10,%edx
  402b1a:	48 89 ee             	mov    %rbp,%rsi
  402b1d:	89 df                	mov    %ebx,%edi
  402b1f:	e8 bc e2 ff ff       	callq  400de0 <connect@plt>
  402b24:	85 c0                	test   %eax,%eax
  402b26:	0f 88 fb 00 00 00    	js     402c27 <init_driver+0x1cc>
  402b2c:	89 df                	mov    %ebx,%edi
  402b2e:	e8 8d e1 ff ff       	callq  400cc0 <close@plt>
  402b33:	66 41 c7 04 24 4f 4b 	movw   $0x4b4f,(%r12)
  402b3a:	41 c6 44 24 02 00    	movb   $0x0,0x2(%r12)
  402b40:	b8 00 00 00 00       	mov    $0x0,%eax
  402b45:	48 8b 4c 24 18       	mov    0x18(%rsp),%rcx
  402b4a:	64 48 33 0c 25 28 00 	xor    %fs:0x28,%rcx
  402b51:	00 00 
  402b53:	0f 85 28 01 00 00    	jne    402c81 <init_driver+0x226>
  402b59:	48 83 c4 20          	add    $0x20,%rsp
  402b5d:	5b                   	pop    %rbx
  402b5e:	5d                   	pop    %rbp
  402b5f:	41 5c                	pop    %r12
  402b61:	c3                   	retq   
  402b62:	48 b8 45 72 72 6f 72 	movabs $0x43203a726f727245,%rax
  402b69:	3a 20 43 
  402b6c:	48 ba 6c 69 65 6e 74 	movabs $0x6e7520746e65696c,%rdx
  402b73:	20 75 6e 
  402b76:	49 89 04 24          	mov    %rax,(%r12)
  402b7a:	49 89 54 24 08       	mov    %rdx,0x8(%r12)
  402b7f:	48 b8 61 62 6c 65 20 	movabs $0x206f7420656c6261,%rax
  402b86:	74 6f 20 
  402b89:	48 ba 63 72 65 61 74 	movabs $0x7320657461657263,%rdx
  402b90:	65 20 73 
  402b93:	49 89 44 24 10       	mov    %rax,0x10(%r12)
  402b98:	49 89 54 24 18       	mov    %rdx,0x18(%r12)
  402b9d:	41 c7 44 24 20 6f 63 	movl   $0x656b636f,0x20(%r12)
  402ba4:	6b 65 
  402ba6:	66 41 c7 44 24 24 74 	movw   $0x74,0x24(%r12)
  402bad:	00 
  402bae:	b8 ff ff ff ff       	mov    $0xffffffff,%eax
  402bb3:	eb 90                	jmp    402b45 <init_driver+0xea>
  402bb5:	48 b8 45 72 72 6f 72 	movabs $0x44203a726f727245,%rax
  402bbc:	3a 20 44 
  402bbf:	48 ba 4e 53 20 69 73 	movabs $0x6e7520736920534e,%rdx
  402bc6:	20 75 6e 
  402bc9:	49 89 04 24          	mov    %rax,(%r12)
  402bcd:	49 89 54 24 08       	mov    %rdx,0x8(%r12)
  402bd2:	48 b8 61 62 6c 65 20 	movabs $0x206f7420656c6261,%rax
  402bd9:	74 6f 20 
  402bdc:	48 ba 72 65 73 6f 6c 	movabs $0x2065766c6f736572,%rdx
  402be3:	76 65 20 
  402be6:	49 89 44 24 10       	mov    %rax,0x10(%r12)
  402beb:	49 89 54 24 18       	mov    %rdx,0x18(%r12)
  402bf0:	48 b8 73 65 72 76 65 	movabs $0x6120726576726573,%rax
  402bf7:	72 20 61 
  402bfa:	49 89 44 24 20       	mov    %rax,0x20(%r12)
  402bff:	41 c7 44 24 28 64 64 	movl   $0x65726464,0x28(%r12)
  402c06:	72 65 
  402c08:	66 41 c7 44 24 2c 73 	movw   $0x7373,0x2c(%r12)
  402c0f:	73 
  402c10:	41 c6 44 24 2e 00    	movb   $0x0,0x2e(%r12)
  402c16:	89 df                	mov    %ebx,%edi
  402c18:	e8 a3 e0 ff ff       	callq  400cc0 <close@plt>
  402c1d:	b8 ff ff ff ff       	mov    $0xffffffff,%eax
  402c22:	e9 1e ff ff ff       	jmpq   402b45 <init_driver+0xea>
  402c27:	48 b8 45 72 72 6f 72 	movabs $0x55203a726f727245,%rax
  402c2e:	3a 20 55 
  402c31:	48 ba 6e 61 62 6c 65 	movabs $0x6f7420656c62616e,%rdx
  402c38:	20 74 6f 
  402c3b:	49 89 04 24          	mov    %rax,(%r12)
  402c3f:	49 89 54 24 08       	mov    %rdx,0x8(%r12)
  402c44:	48 b8 20 63 6f 6e 6e 	movabs $0x7463656e6e6f6320,%rax
  402c4b:	65 63 74 
  402c4e:	48 ba 20 74 6f 20 73 	movabs $0x76726573206f7420,%rdx
  402c55:	65 72 76 
  402c58:	49 89 44 24 10       	mov    %rax,0x10(%r12)
  402c5d:	49 89 54 24 18       	mov    %rdx,0x18(%r12)
  402c62:	66 41 c7 44 24 20 65 	movw   $0x7265,0x20(%r12)
  402c69:	72 
  402c6a:	41 c6 44 24 22 00    	movb   $0x0,0x22(%r12)
  402c70:	89 df                	mov    %ebx,%edi
  402c72:	e8 49 e0 ff ff       	callq  400cc0 <close@plt>
  402c77:	b8 ff ff ff ff       	mov    $0xffffffff,%eax
  402c7c:	e9 c4 fe ff ff       	jmpq   402b45 <init_driver+0xea>
  402c81:	e8 fa df ff ff       	callq  400c80 <__stack_chk_fail@plt>

0000000000402c86 <driver_post>:
  402c86:	53                   	push   %rbx
  402c87:	4c 89 cb             	mov    %r9,%rbx
  402c8a:	45 85 c0             	test   %r8d,%r8d
  402c8d:	75 18                	jne    402ca7 <driver_post+0x21>
  402c8f:	48 85 ff             	test   %rdi,%rdi
  402c92:	74 05                	je     402c99 <driver_post+0x13>
  402c94:	80 3f 00             	cmpb   $0x0,(%rdi)
  402c97:	75 37                	jne    402cd0 <driver_post+0x4a>
  402c99:	66 c7 03 4f 4b       	movw   $0x4b4f,(%rbx)
  402c9e:	c6 43 02 00          	movb   $0x0,0x2(%rbx)
  402ca2:	44 89 c0             	mov    %r8d,%eax
  402ca5:	5b                   	pop    %rbx
  402ca6:	c3                   	retq   
  402ca7:	48 89 ca             	mov    %rcx,%rdx
  402caa:	48 8d 35 38 08 00 00 	lea    0x838(%rip),%rsi        # 4034e9 <trans_char+0xd9>
  402cb1:	bf 01 00 00 00       	mov    $0x1,%edi
  402cb6:	b8 00 00 00 00       	mov    $0x0,%eax
  402cbb:	e8 d0 e0 ff ff       	callq  400d90 <__printf_chk@plt>
  402cc0:	66 c7 03 4f 4b       	movw   $0x4b4f,(%rbx)
  402cc5:	c6 43 02 00          	movb   $0x0,0x2(%rbx)
  402cc9:	b8 00 00 00 00       	mov    $0x0,%eax
  402cce:	eb d5                	jmp    402ca5 <driver_post+0x1f>
  402cd0:	48 83 ec 08          	sub    $0x8,%rsp
  402cd4:	41 51                	push   %r9
  402cd6:	49 89 c9             	mov    %rcx,%r9
  402cd9:	49 89 d0             	mov    %rdx,%r8
  402cdc:	48 89 f9             	mov    %rdi,%rcx
  402cdf:	48 89 f2             	mov    %rsi,%rdx
  402ce2:	be 3d c7 00 00       	mov    $0xc73d,%esi
  402ce7:	48 8d 3d eb 07 00 00 	lea    0x7eb(%rip),%rdi        # 4034d9 <trans_char+0xc9>
  402cee:	e8 d7 f5 ff ff       	callq  4022ca <submitr>
  402cf3:	48 83 c4 10          	add    $0x10,%rsp
  402cf7:	eb ac                	jmp    402ca5 <driver_post+0x1f>

0000000000402cf9 <check>:
  402cf9:	89 f8                	mov    %edi,%eax
  402cfb:	c1 e8 1c             	shr    $0x1c,%eax
  402cfe:	85 c0                	test   %eax,%eax
  402d00:	74 1d                	je     402d1f <check+0x26>
  402d02:	b9 00 00 00 00       	mov    $0x0,%ecx
  402d07:	83 f9 1f             	cmp    $0x1f,%ecx
  402d0a:	7f 0d                	jg     402d19 <check+0x20>
  402d0c:	89 f8                	mov    %edi,%eax
  402d0e:	d3 e8                	shr    %cl,%eax
  402d10:	3c 0a                	cmp    $0xa,%al
  402d12:	74 11                	je     402d25 <check+0x2c>
  402d14:	83 c1 08             	add    $0x8,%ecx
  402d17:	eb ee                	jmp    402d07 <check+0xe>
  402d19:	b8 01 00 00 00       	mov    $0x1,%eax
  402d1e:	c3                   	retq   
  402d1f:	b8 00 00 00 00       	mov    $0x0,%eax
  402d24:	c3                   	retq   
  402d25:	b8 00 00 00 00       	mov    $0x0,%eax
  402d2a:	c3                   	retq   

0000000000402d2b <gencookie>:
  402d2b:	53                   	push   %rbx
  402d2c:	83 c7 01             	add    $0x1,%edi
  402d2f:	e8 fc de ff ff       	callq  400c30 <srandom@plt>
  402d34:	e8 27 e0 ff ff       	callq  400d60 <random@plt>
  402d39:	89 c3                	mov    %eax,%ebx
  402d3b:	89 c7                	mov    %eax,%edi
  402d3d:	e8 b7 ff ff ff       	callq  402cf9 <check>
  402d42:	85 c0                	test   %eax,%eax
  402d44:	74 ee                	je     402d34 <gencookie+0x9>
  402d46:	89 d8                	mov    %ebx,%eax
  402d48:	5b                   	pop    %rbx
  402d49:	c3                   	retq   
  402d4a:	66 0f 1f 44 00 00    	nopw   0x0(%rax,%rax,1)

0000000000402d50 <__libc_csu_init>:
  402d50:	41 57                	push   %r15
  402d52:	41 56                	push   %r14
  402d54:	49 89 d7             	mov    %rdx,%r15
  402d57:	41 55                	push   %r13
  402d59:	41 54                	push   %r12
  402d5b:	4c 8d 25 ae 10 20 00 	lea    0x2010ae(%rip),%r12        # 603e10 <__frame_dummy_init_array_entry>
  402d62:	55                   	push   %rbp
  402d63:	48 8d 2d ae 10 20 00 	lea    0x2010ae(%rip),%rbp        # 603e18 <__init_array_end>
  402d6a:	53                   	push   %rbx
  402d6b:	41 89 fd             	mov    %edi,%r13d
  402d6e:	49 89 f6             	mov    %rsi,%r14
  402d71:	4c 29 e5             	sub    %r12,%rbp
  402d74:	48 83 ec 08          	sub    $0x8,%rsp
  402d78:	48 c1 fd 03          	sar    $0x3,%rbp
  402d7c:	e8 6f de ff ff       	callq  400bf0 <_init>
  402d81:	48 85 ed             	test   %rbp,%rbp
  402d84:	74 20                	je     402da6 <__libc_csu_init+0x56>
  402d86:	31 db                	xor    %ebx,%ebx
  402d88:	0f 1f 84 00 00 00 00 	nopl   0x0(%rax,%rax,1)
  402d8f:	00 
  402d90:	4c 89 fa             	mov    %r15,%rdx
  402d93:	4c 89 f6             	mov    %r14,%rsi
  402d96:	44 89 ef             	mov    %r13d,%edi
  402d99:	41 ff 14 dc          	callq  *(%r12,%rbx,8)
  402d9d:	48 83 c3 01          	add    $0x1,%rbx
  402da1:	48 39 dd             	cmp    %rbx,%rbp
  402da4:	75 ea                	jne    402d90 <__libc_csu_init+0x40>
  402da6:	48 83 c4 08          	add    $0x8,%rsp
  402daa:	5b                   	pop    %rbx
  402dab:	5d                   	pop    %rbp
  402dac:	41 5c                	pop    %r12
  402dae:	41 5d                	pop    %r13
  402db0:	41 5e                	pop    %r14
  402db2:	41 5f                	pop    %r15
  402db4:	c3                   	retq   
  402db5:	90                   	nop
  402db6:	66 2e 0f 1f 84 00 00 	nopw   %cs:0x0(%rax,%rax,1)
  402dbd:	00 00 00 

0000000000402dc0 <__libc_csu_fini>:
  402dc0:	f3 c3                	repz retq 

Disassembly of section .fini:

0000000000402dc4 <_fini>:
  402dc4:	48 83 ec 08          	sub    $0x8,%rsp
  402dc8:	48 83 c4 08          	add    $0x8,%rsp
  402dcc:	c3                   	retq   
